ARM GAS  /var/folders/11/xdtqf_dx1yx09tgy7pcbkdzh0000gp/T//cca9poyW.s 			page 1


   1              		.cpu cortex-m7
   2              		.arch armv7e-m
   3              		.fpu fpv5-d16
   4              		.eabi_attribute 28, 1
   5              		.eabi_attribute 20, 1
   6              		.eabi_attribute 21, 1
   7              		.eabi_attribute 23, 3
   8              		.eabi_attribute 24, 1
   9              		.eabi_attribute 25, 1
  10              		.eabi_attribute 26, 1
  11              		.eabi_attribute 30, 2
  12              		.eabi_attribute 34, 1
  13              		.eabi_attribute 18, 4
  14              		.file	"hearing_aid.cpp"
  15              		.text
  16              	.Ltext0:
  17              		.cfi_sections	.debug_frame
  18              		.file 1 "hearing_aid.cpp"
  19              		.section	.text._ZN5daisy9DaisySeedD2Ev,"axG",%progbits,_ZN5daisy9DaisySeedD5Ev,comdat
  20              		.align	1
  21              		.p2align 2,,3
  22              		.weak	_ZN5daisy9DaisySeedD2Ev
  23              		.syntax unified
  24              		.thumb
  25              		.thumb_func
  27              	_ZN5daisy9DaisySeedD2Ev:
  28              	.LVL0:
  29              	.LFB2360:
  30              		.file 2 "../../libDaisy/src/daisy_seed.h"
   1:../../libDaisy/src/daisy_seed.h **** #pragma once
   2:../../libDaisy/src/daisy_seed.h **** #ifndef DSY_SEED_H
   3:../../libDaisy/src/daisy_seed.h **** #define DSY_SEED_H
   4:../../libDaisy/src/daisy_seed.h **** 
   5:../../libDaisy/src/daisy_seed.h **** #include "daisy.h"
   6:../../libDaisy/src/daisy_seed.h **** 
   7:../../libDaisy/src/daisy_seed.h **** //Uncomment this out if you're still using the rev2 hardware
   8:../../libDaisy/src/daisy_seed.h **** //#define SEED_REV2
   9:../../libDaisy/src/daisy_seed.h **** 
  10:../../libDaisy/src/daisy_seed.h **** namespace daisy
  11:../../libDaisy/src/daisy_seed.h **** {
  12:../../libDaisy/src/daisy_seed.h **** /**
  13:../../libDaisy/src/daisy_seed.h ****    @brief This is the higher-level interface for the Daisy board. \n 
  14:../../libDaisy/src/daisy_seed.h ****     All basic peripheral configuration/initialization is setup here. \n
  15:../../libDaisy/src/daisy_seed.h **** 
  16:../../libDaisy/src/daisy_seed.h ****    @ingroup boards
  17:../../libDaisy/src/daisy_seed.h **** */
  18:../../libDaisy/src/daisy_seed.h **** class DaisySeed
  19:../../libDaisy/src/daisy_seed.h **** {
  20:../../libDaisy/src/daisy_seed.h ****   public:
  21:../../libDaisy/src/daisy_seed.h ****     DaisySeed() {}
  22:../../libDaisy/src/daisy_seed.h ****     ~DaisySeed() {}
  31              		.loc 2 22 5 view -0
  32              		.cfi_startproc
  33              		@ args = 0, pretend = 0, frame = 0
  34              		@ frame_needed = 0, uses_anonymous_args = 0
  35              		@ link register save eliminated.
  36              	.LBB52:
ARM GAS  /var/folders/11/xdtqf_dx1yx09tgy7pcbkdzh0000gp/T//cca9poyW.s 			page 2


  37              	.LBB53:
  38              	.LBI53:
  39              		.file 3 "../../libDaisy/src/sys/system.h"
   1:../../libDaisy/src/sys/system.h **** #ifndef DSY_SYSTEM_H
   2:../../libDaisy/src/sys/system.h **** #define DSY_SYSTEM_H
   3:../../libDaisy/src/sys/system.h **** 
   4:../../libDaisy/src/sys/system.h **** #ifndef UNIT_TEST // for unit tests, a dummy implementation is provided below
   5:../../libDaisy/src/sys/system.h **** 
   6:../../libDaisy/src/sys/system.h **** #include <cstdint>
   7:../../libDaisy/src/sys/system.h **** #include "per/tim.h"
   8:../../libDaisy/src/sys/system.h **** 
   9:../../libDaisy/src/sys/system.h **** namespace daisy
  10:../../libDaisy/src/sys/system.h **** {
  11:../../libDaisy/src/sys/system.h **** /** A handle for interacting with the Core System.
  12:../../libDaisy/src/sys/system.h ****  ** This includes the Clock tree, MPU, global DMA initialization,
  13:../../libDaisy/src/sys/system.h ****  ** cache handling, and any other necessary global initiailzation
  14:../../libDaisy/src/sys/system.h ****  **
  15:../../libDaisy/src/sys/system.h ****  ** @author shensley
  16:../../libDaisy/src/sys/system.h ****  ** @ingroup system
  17:../../libDaisy/src/sys/system.h ****  */
  18:../../libDaisy/src/sys/system.h **** class System
  19:../../libDaisy/src/sys/system.h **** {
  20:../../libDaisy/src/sys/system.h ****   public:
  21:../../libDaisy/src/sys/system.h ****     /** Contains settings for initializing the System */
  22:../../libDaisy/src/sys/system.h ****     struct Config
  23:../../libDaisy/src/sys/system.h ****     {
  24:../../libDaisy/src/sys/system.h ****         /** Specifies the system clock frequency that feeds APB/AHB clocks, etc. */
  25:../../libDaisy/src/sys/system.h ****         enum class SysClkFreq
  26:../../libDaisy/src/sys/system.h ****         {
  27:../../libDaisy/src/sys/system.h ****             FREQ_400MHZ,
  28:../../libDaisy/src/sys/system.h ****             FREQ_480MHZ,
  29:../../libDaisy/src/sys/system.h ****         };
  30:../../libDaisy/src/sys/system.h **** 
  31:../../libDaisy/src/sys/system.h ****         /** Method to call on the struct to set to defaults
  32:../../libDaisy/src/sys/system.h ****          ** CPU Freq set to 400MHz
  33:../../libDaisy/src/sys/system.h ****          ** Cache Enabled
  34:../../libDaisy/src/sys/system.h ****          ** */
  35:../../libDaisy/src/sys/system.h ****         void Defaults()
  36:../../libDaisy/src/sys/system.h ****         {
  37:../../libDaisy/src/sys/system.h ****             cpu_freq    = SysClkFreq::FREQ_400MHZ;
  38:../../libDaisy/src/sys/system.h ****             use_dcache  = true;
  39:../../libDaisy/src/sys/system.h ****             use_icache  = true;
  40:../../libDaisy/src/sys/system.h ****             skip_clocks = false;
  41:../../libDaisy/src/sys/system.h ****         }
  42:../../libDaisy/src/sys/system.h **** 
  43:../../libDaisy/src/sys/system.h ****         /** Method to call on the struct to set to boost mode:
  44:../../libDaisy/src/sys/system.h ****          ** CPU Freq set to 480MHz
  45:../../libDaisy/src/sys/system.h ****          ** Cache Enabled
  46:../../libDaisy/src/sys/system.h ****          ** */
  47:../../libDaisy/src/sys/system.h ****         void Boost()
  48:../../libDaisy/src/sys/system.h ****         {
  49:../../libDaisy/src/sys/system.h ****             cpu_freq    = SysClkFreq::FREQ_480MHZ;
  50:../../libDaisy/src/sys/system.h ****             use_dcache  = true;
  51:../../libDaisy/src/sys/system.h ****             use_icache  = true;
  52:../../libDaisy/src/sys/system.h ****             skip_clocks = false;
  53:../../libDaisy/src/sys/system.h ****         }
  54:../../libDaisy/src/sys/system.h **** 
ARM GAS  /var/folders/11/xdtqf_dx1yx09tgy7pcbkdzh0000gp/T//cca9poyW.s 			page 3


  55:../../libDaisy/src/sys/system.h ****         SysClkFreq cpu_freq;
  56:../../libDaisy/src/sys/system.h ****         bool       use_dcache;
  57:../../libDaisy/src/sys/system.h ****         bool       use_icache;
  58:../../libDaisy/src/sys/system.h ****         bool       skip_clocks;
  59:../../libDaisy/src/sys/system.h ****     };
  60:../../libDaisy/src/sys/system.h **** 
  61:../../libDaisy/src/sys/system.h ****     /** Describes the different regions of memory available to the Daisy */
  62:../../libDaisy/src/sys/system.h ****     enum MemoryRegion
  63:../../libDaisy/src/sys/system.h ****     {
  64:../../libDaisy/src/sys/system.h ****         INTERNAL_FLASH = 0,
  65:../../libDaisy/src/sys/system.h ****         ITCMRAM,
  66:../../libDaisy/src/sys/system.h ****         DTCMRAM,
  67:../../libDaisy/src/sys/system.h ****         SRAM_D1,
  68:../../libDaisy/src/sys/system.h ****         SRAM_D2,
  69:../../libDaisy/src/sys/system.h ****         SRAM_D3,
  70:../../libDaisy/src/sys/system.h ****         SDRAM,
  71:../../libDaisy/src/sys/system.h ****         QSPI,
  72:../../libDaisy/src/sys/system.h ****         INVALID_ADDRESS,
  73:../../libDaisy/src/sys/system.h ****     };
  74:../../libDaisy/src/sys/system.h **** 
  75:../../libDaisy/src/sys/system.h ****     /** Bootloader struct for controlling bootloading parameters */
  76:../../libDaisy/src/sys/system.h ****     struct BootInfo
  77:../../libDaisy/src/sys/system.h ****     {
  78:../../libDaisy/src/sys/system.h ****         enum class Type : uint32_t
  79:../../libDaisy/src/sys/system.h ****         {
  80:../../libDaisy/src/sys/system.h ****             INVALID      = 0x00000000,
  81:../../libDaisy/src/sys/system.h ****             JUMP         = 0xDEADBEEF,
  82:../../libDaisy/src/sys/system.h ****             SKIP_TIMEOUT = 0x5AFEB007,
  83:../../libDaisy/src/sys/system.h ****             INF_TIMEOUT  = 0xB0074EFA,
  84:../../libDaisy/src/sys/system.h ****         } status;
  85:../../libDaisy/src/sys/system.h ****         uint32_t data;
  86:../../libDaisy/src/sys/system.h ****         enum class Version : uint32_t
  87:../../libDaisy/src/sys/system.h ****         {
  88:../../libDaisy/src/sys/system.h ****             LT_v6_0 = 0, // Less than v6.0
  89:../../libDaisy/src/sys/system.h ****             NONE,        // No bootloader present
  90:../../libDaisy/src/sys/system.h ****             v6_0,        // v6.0
  91:../../libDaisy/src/sys/system.h ****             v6_1,        // v6.1 or greater
  92:../../libDaisy/src/sys/system.h ****             LAST
  93:../../libDaisy/src/sys/system.h ****         } version;
  94:../../libDaisy/src/sys/system.h ****     };
  95:../../libDaisy/src/sys/system.h **** 
  96:../../libDaisy/src/sys/system.h ****     System() {}
  97:../../libDaisy/src/sys/system.h ****     ~System() {}
  40              		.loc 3 97 5 view .LVU1
  41              		.loc 3 97 5 is_stmt 0 view .LVU2
  42              	.LBE53:
  43              	.LBB54:
  44              	.LBI54:
  45              		.file 4 "../../libDaisy/src/hid/usb.h"
   1:../../libDaisy/src/hid/usb.h **** #pragma once
   2:../../libDaisy/src/hid/usb.h **** #ifndef DSY_HID_USB_H
   3:../../libDaisy/src/hid/usb.h **** #define DSY_HID_USB_H
   4:../../libDaisy/src/hid/usb.h **** #include <stdint.h>
   5:../../libDaisy/src/hid/usb.h **** #include <stdlib.h>
   6:../../libDaisy/src/hid/usb.h **** 
   7:../../libDaisy/src/hid/usb.h **** namespace daisy
   8:../../libDaisy/src/hid/usb.h **** /** @addtogroup human_interface
ARM GAS  /var/folders/11/xdtqf_dx1yx09tgy7pcbkdzh0000gp/T//cca9poyW.s 			page 4


   9:../../libDaisy/src/hid/usb.h ****     @{
  10:../../libDaisy/src/hid/usb.h **** */
  11:../../libDaisy/src/hid/usb.h **** 
  12:../../libDaisy/src/hid/usb.h **** {
  13:../../libDaisy/src/hid/usb.h **** /** 
  14:../../libDaisy/src/hid/usb.h ****     @brief Interface for initializing and using the USB Peripherals on the daisy
  15:../../libDaisy/src/hid/usb.h ****     @author Stephen Hensley
  16:../../libDaisy/src/hid/usb.h ****     @date December 2019
  17:../../libDaisy/src/hid/usb.h **** */
  18:../../libDaisy/src/hid/usb.h **** class UsbHandle
  19:../../libDaisy/src/hid/usb.h **** {
  20:../../libDaisy/src/hid/usb.h ****   public:
  21:../../libDaisy/src/hid/usb.h ****     /** Return values for USBHandle Functions */
  22:../../libDaisy/src/hid/usb.h ****     enum class Result
  23:../../libDaisy/src/hid/usb.h ****     {
  24:../../libDaisy/src/hid/usb.h ****         OK,
  25:../../libDaisy/src/hid/usb.h ****         ERR,
  26:../../libDaisy/src/hid/usb.h ****     };
  27:../../libDaisy/src/hid/usb.h **** 
  28:../../libDaisy/src/hid/usb.h ****     /** Specified which of the two USB Peripherals to initialize. */
  29:../../libDaisy/src/hid/usb.h ****     enum UsbPeriph
  30:../../libDaisy/src/hid/usb.h ****     {
  31:../../libDaisy/src/hid/usb.h ****         FS_INTERNAL, /**< Internal pin */
  32:../../libDaisy/src/hid/usb.h ****         FS_EXTERNAL, /**< FS External D+ pin is Pin 38 (GPIO32). FS External D- pin is Pin 37 (GPIO
  33:../../libDaisy/src/hid/usb.h ****         FS_BOTH,     /**< Both */
  34:../../libDaisy/src/hid/usb.h ****     };
  35:../../libDaisy/src/hid/usb.h **** 
  36:../../libDaisy/src/hid/usb.h **** 
  37:../../libDaisy/src/hid/usb.h ****     /** Function called upon reception of a buffer */
  38:../../libDaisy/src/hid/usb.h ****     typedef void (*ReceiveCallback)(uint8_t* buff, uint32_t* len);
  39:../../libDaisy/src/hid/usb.h **** 
  40:../../libDaisy/src/hid/usb.h ****     UsbHandle() {}
  41:../../libDaisy/src/hid/usb.h **** 
  42:../../libDaisy/src/hid/usb.h ****     ~UsbHandle() {}
  46              		.loc 4 42 5 is_stmt 1 view .LVU3
  47              		.loc 4 42 5 is_stmt 0 view .LVU4
  48              	.LBE54:
  49              	.LBB55:
  50              	.LBI55:
  51              		.file 5 "../../libDaisy/src/per/adc.h"
   1:../../libDaisy/src/per/adc.h **** #pragma once
   2:../../libDaisy/src/per/adc.h **** #ifndef DSY_ADC_H
   3:../../libDaisy/src/per/adc.h **** #define DSY_ADC_H /**< Macro */
   4:../../libDaisy/src/per/adc.h **** #include <stdint.h>
   5:../../libDaisy/src/per/adc.h **** #include <stdlib.h>
   6:../../libDaisy/src/per/adc.h **** #include "daisy_core.h"
   7:../../libDaisy/src/per/adc.h **** #include "per/gpio.h"
   8:../../libDaisy/src/per/adc.h **** 
   9:../../libDaisy/src/per/adc.h **** #define DSY_ADC_MAX_CHANNELS 16 /**< Maximum number of ADC channels */
  10:../../libDaisy/src/per/adc.h **** 
  11:../../libDaisy/src/per/adc.h **** namespace daisy
  12:../../libDaisy/src/per/adc.h **** {
  13:../../libDaisy/src/per/adc.h **** /** @addtogroup per_analog
  14:../../libDaisy/src/per/adc.h ****     @{
  15:../../libDaisy/src/per/adc.h **** */
  16:../../libDaisy/src/per/adc.h **** 
  17:../../libDaisy/src/per/adc.h **** /* While there may not be many configuration options here,
ARM GAS  /var/folders/11/xdtqf_dx1yx09tgy7pcbkdzh0000gp/T//cca9poyW.s 			page 5


  18:../../libDaisy/src/per/adc.h **** using a struct like this allows us to add more configuration
  19:../../libDaisy/src/per/adc.h **** later without breaking existing functionality.
  20:../../libDaisy/src/per/adc.h **** */
  21:../../libDaisy/src/per/adc.h **** 
  22:../../libDaisy/src/per/adc.h **** /** @brief   Configuration Structure for an ADC Channel 
  23:../../libDaisy/src/per/adc.h ****  *  @details This can be used to configure a a single input, 
  24:../../libDaisy/src/per/adc.h ****  *           or a multiplexed input, allowing up to 8 inputs on 
  25:../../libDaisy/src/per/adc.h ****  *           one channel.
  26:../../libDaisy/src/per/adc.h ****  *  @note    Sharing data lines to multiple muxes _is_ possible, but
  27:../../libDaisy/src/per/adc.h ****  *           each channel sharing data lines must be set to the maximum
  28:../../libDaisy/src/per/adc.h ****  *           number of channels, even if some multiplexers have fewer
  29:../../libDaisy/src/per/adc.h ****  *           inputs connected.
  30:../../libDaisy/src/per/adc.h **** */
  31:../../libDaisy/src/per/adc.h **** struct AdcChannelConfig
  32:../../libDaisy/src/per/adc.h **** {
  33:../../libDaisy/src/per/adc.h ****     /** Which pin to use for multiplexing */
  34:../../libDaisy/src/per/adc.h ****     enum MuxPin
  35:../../libDaisy/src/per/adc.h ****     {
  36:../../libDaisy/src/per/adc.h ****         MUX_SEL_0,    /**< & */
  37:../../libDaisy/src/per/adc.h ****         MUX_SEL_1,    /**< & */
  38:../../libDaisy/src/per/adc.h ****         MUX_SEL_2,    /**< & */
  39:../../libDaisy/src/per/adc.h ****         MUX_SEL_LAST, /**< & */
  40:../../libDaisy/src/per/adc.h ****     };
  41:../../libDaisy/src/per/adc.h **** 
  42:../../libDaisy/src/per/adc.h ****     /** \brief per channel conversion speed added to fixed time based on bitdepth, etc. */
  43:../../libDaisy/src/per/adc.h ****     enum ConversionSpeed
  44:../../libDaisy/src/per/adc.h ****     {
  45:../../libDaisy/src/per/adc.h ****         SPEED_1CYCLES_5,
  46:../../libDaisy/src/per/adc.h ****         SPEED_2CYCLES_5,
  47:../../libDaisy/src/per/adc.h ****         SPEED_8CYCLES_5,
  48:../../libDaisy/src/per/adc.h ****         SPEED_16CYCLES_5,
  49:../../libDaisy/src/per/adc.h ****         SPEED_32CYCLES_5,
  50:../../libDaisy/src/per/adc.h ****         SPEED_64CYCLES_5,
  51:../../libDaisy/src/per/adc.h ****         SPEED_387CYCLES_5,
  52:../../libDaisy/src/per/adc.h ****         SPEED_810CYCLES_5,
  53:../../libDaisy/src/per/adc.h ****     };
  54:../../libDaisy/src/per/adc.h **** 
  55:../../libDaisy/src/per/adc.h ****     /** Initializes a single ADC pin as an ADC. 
  56:../../libDaisy/src/per/adc.h ****     \param pin Pin to init.
  57:../../libDaisy/src/per/adc.h ****     \param speed conversion speed for this pin defaults to 8.5 cycles
  58:../../libDaisy/src/per/adc.h ****      */
  59:../../libDaisy/src/per/adc.h ****     void InitSingle(dsy_gpio_pin pin, ConversionSpeed speed = SPEED_8CYCLES_5);
  60:../../libDaisy/src/per/adc.h **** 
  61:../../libDaisy/src/per/adc.h ****     /** 
  62:../../libDaisy/src/per/adc.h ****     Initializes a single ADC pin as a Multiplexed ADC.
  63:../../libDaisy/src/per/adc.h ****     Requires a CD405X Multiplexer connected to the pin.
  64:../../libDaisy/src/per/adc.h ****     You only need to supply the mux pins that are required,
  65:../../libDaisy/src/per/adc.h ****     e.g. a 4052 mux would only require mux_0 and mux_1.
  66:../../libDaisy/src/per/adc.h ****     Internal Callbacks handle the pin addressing.
  67:../../libDaisy/src/per/adc.h ****     \param adc_pin &
  68:../../libDaisy/src/per/adc.h ****     \param mux_channels must be 1-8
  69:../../libDaisy/src/per/adc.h ****     \param mux_0 First mux pin
  70:../../libDaisy/src/per/adc.h ****     \param mux_1 Second mux pin
  71:../../libDaisy/src/per/adc.h ****     \param mux_2 Third mux pin
  72:../../libDaisy/src/per/adc.h ****     \param speed conversion speed for this pin defaults to 8.5 cycles
  73:../../libDaisy/src/per/adc.h ****     */
  74:../../libDaisy/src/per/adc.h ****     void InitMux(dsy_gpio_pin    adc_pin,
ARM GAS  /var/folders/11/xdtqf_dx1yx09tgy7pcbkdzh0000gp/T//cca9poyW.s 			page 6


  75:../../libDaisy/src/per/adc.h ****                  size_t          mux_channels,
  76:../../libDaisy/src/per/adc.h ****                  dsy_gpio_pin    mux_0,
  77:../../libDaisy/src/per/adc.h ****                  dsy_gpio_pin    mux_1 = {DSY_GPIOX, 0},
  78:../../libDaisy/src/per/adc.h ****                  dsy_gpio_pin    mux_2 = {DSY_GPIOX, 0},
  79:../../libDaisy/src/per/adc.h ****                  ConversionSpeed speed = SPEED_8CYCLES_5);
  80:../../libDaisy/src/per/adc.h **** 
  81:../../libDaisy/src/per/adc.h ****     dsy_gpio        pin_;                   /**< & */
  82:../../libDaisy/src/per/adc.h ****     dsy_gpio        mux_pin_[MUX_SEL_LAST]; /**< & */
  83:../../libDaisy/src/per/adc.h ****     uint8_t         mux_channels_;          /**< & */
  84:../../libDaisy/src/per/adc.h ****     ConversionSpeed speed_;
  85:../../libDaisy/src/per/adc.h **** };
  86:../../libDaisy/src/per/adc.h **** 
  87:../../libDaisy/src/per/adc.h **** /**
  88:../../libDaisy/src/per/adc.h ****    @brief Handler for analog to digital conversion
  89:../../libDaisy/src/per/adc.h **** */
  90:../../libDaisy/src/per/adc.h **** class AdcHandle
  91:../../libDaisy/src/per/adc.h **** {
  92:../../libDaisy/src/per/adc.h ****   public:
  93:../../libDaisy/src/per/adc.h ****     /** Supported oversampling amounts */
  94:../../libDaisy/src/per/adc.h ****     enum OverSampling
  95:../../libDaisy/src/per/adc.h ****     {
  96:../../libDaisy/src/per/adc.h ****         OVS_NONE, /**< & */
  97:../../libDaisy/src/per/adc.h ****         OVS_4,    /**< & */
  98:../../libDaisy/src/per/adc.h ****         OVS_8,    /**< & */
  99:../../libDaisy/src/per/adc.h ****         OVS_16,   /**< & */
 100:../../libDaisy/src/per/adc.h ****         OVS_32,   /**< & */
 101:../../libDaisy/src/per/adc.h ****         OVS_64,   /**< & */
 102:../../libDaisy/src/per/adc.h ****         OVS_128,  /**< & */
 103:../../libDaisy/src/per/adc.h ****         OVS_256,  /**< & */
 104:../../libDaisy/src/per/adc.h ****         OVS_512,  /**< & */
 105:../../libDaisy/src/per/adc.h ****         OVS_1024, /**< & */
 106:../../libDaisy/src/per/adc.h ****         OVS_LAST, /**< & */
 107:../../libDaisy/src/per/adc.h ****     };
 108:../../libDaisy/src/per/adc.h **** 
 109:../../libDaisy/src/per/adc.h ****     AdcHandle() {}
 110:../../libDaisy/src/per/adc.h ****     ~AdcHandle() {}
  52              		.loc 5 110 5 is_stmt 1 view .LVU5
  53              		.loc 5 110 5 is_stmt 0 view .LVU6
  54              	.LBE55:
  55              	.LBB56:
  56              	.LBI56:
  57              		.file 6 "../../libDaisy/src/hid/audio.h"
   1:../../libDaisy/src/hid/audio.h **** #ifndef DSY_AUDIO_H
   2:../../libDaisy/src/hid/audio.h **** #define DSY_AUDIO_H /**< & */
   3:../../libDaisy/src/hid/audio.h **** 
   4:../../libDaisy/src/hid/audio.h **** #include "per/sai.h"
   5:../../libDaisy/src/hid/audio.h **** 
   6:../../libDaisy/src/hid/audio.h **** namespace daisy
   7:../../libDaisy/src/hid/audio.h **** {
   8:../../libDaisy/src/hid/audio.h **** /** @brief Audio Engine Handle
   9:../../libDaisy/src/hid/audio.h ****  *  @ingroup audio 
  10:../../libDaisy/src/hid/audio.h ****  *  @details This class allows for higher level access to an audio engine.
  11:../../libDaisy/src/hid/audio.h ****  *           If you're using a SOM like the DaisySeed or DaisyPatchSM (or any 
  12:../../libDaisy/src/hid/audio.h ****  *            board that includes one of those objects) then the intialization
  13:../../libDaisy/src/hid/audio.h ****  *            is already taken  care of.
  14:../../libDaisy/src/hid/audio.h ****  *           If you're setting up your own custom hardware, or need to make changes
  15:../../libDaisy/src/hid/audio.h ****  *           you will have to take the following steps:
ARM GAS  /var/folders/11/xdtqf_dx1yx09tgy7pcbkdzh0000gp/T//cca9poyW.s 			page 7


  16:../../libDaisy/src/hid/audio.h ****  *             1. Create and Initialize an SaiHandle or two depending on your requirements
  17:../../libDaisy/src/hid/audio.h ****  *             2. Initialize the Audio Handle with the desired settings and the Initialized SaiHand
  18:../../libDaisy/src/hid/audio.h ****  *             3. If the connected codec requires special configuration or initialization, do so
  19:../../libDaisy/src/hid/audio.h ****  *             4. Write a callback method using either the AudioCallback or the InterleavingAudioCa
  20:../../libDaisy/src/hid/audio.h ****  *             5. Start the Audio using one of the StartAudio function
  21:../../libDaisy/src/hid/audio.h ****  */
  22:../../libDaisy/src/hid/audio.h **** class AudioHandle
  23:../../libDaisy/src/hid/audio.h **** {
  24:../../libDaisy/src/hid/audio.h ****   public:
  25:../../libDaisy/src/hid/audio.h ****     /** Manually configurable details about the Audio Engine */
  26:../../libDaisy/src/hid/audio.h ****     /** TODO: Figure out how to get samplerate in here. */
  27:../../libDaisy/src/hid/audio.h ****     struct Config
  28:../../libDaisy/src/hid/audio.h ****     {
  29:../../libDaisy/src/hid/audio.h ****         /** number of samples to process per callback */
  30:../../libDaisy/src/hid/audio.h ****         size_t blocksize;
  31:../../libDaisy/src/hid/audio.h **** 
  32:../../libDaisy/src/hid/audio.h ****         /**< Sample rate of audio */
  33:../../libDaisy/src/hid/audio.h ****         SaiHandle::Config::SampleRate samplerate;
  34:../../libDaisy/src/hid/audio.h **** 
  35:../../libDaisy/src/hid/audio.h ****         /** factor for adjustment before and after callback for hardware that may have extra headro
  36:../../libDaisy/src/hid/audio.h ****         float postgain;
  37:../../libDaisy/src/hid/audio.h **** 
  38:../../libDaisy/src/hid/audio.h ****         /** factor for additional one-sided compensation to audio path for hardware that may
  39:../../libDaisy/src/hid/audio.h ****          *  have unequal input/output ranges
  40:../../libDaisy/src/hid/audio.h ****          */
  41:../../libDaisy/src/hid/audio.h ****         float output_compensation;
  42:../../libDaisy/src/hid/audio.h **** 
  43:../../libDaisy/src/hid/audio.h ****         /** Sets default values for config struct */
  44:../../libDaisy/src/hid/audio.h ****         Config()
  45:../../libDaisy/src/hid/audio.h ****         : blocksize(48),
  46:../../libDaisy/src/hid/audio.h ****           samplerate(SaiHandle::Config::SampleRate::SAI_48KHZ),
  47:../../libDaisy/src/hid/audio.h ****           postgain(1.f),
  48:../../libDaisy/src/hid/audio.h ****           output_compensation(1.f)
  49:../../libDaisy/src/hid/audio.h ****         {
  50:../../libDaisy/src/hid/audio.h ****         }
  51:../../libDaisy/src/hid/audio.h ****     };
  52:../../libDaisy/src/hid/audio.h **** 
  53:../../libDaisy/src/hid/audio.h ****     enum class Result
  54:../../libDaisy/src/hid/audio.h ****     {
  55:../../libDaisy/src/hid/audio.h ****         OK,
  56:../../libDaisy/src/hid/audio.h ****         ERR,
  57:../../libDaisy/src/hid/audio.h ****     };
  58:../../libDaisy/src/hid/audio.h **** 
  59:../../libDaisy/src/hid/audio.h ****     /** Non-Interleaving input buffer
  60:../../libDaisy/src/hid/audio.h ****      * Buffer arranged by float[chn][sample] 
  61:../../libDaisy/src/hid/audio.h ****      * const so that the user can't modify the input
  62:../../libDaisy/src/hid/audio.h ****      */
  63:../../libDaisy/src/hid/audio.h ****     typedef const float* const* InputBuffer;
  64:../../libDaisy/src/hid/audio.h **** 
  65:../../libDaisy/src/hid/audio.h ****     /** Non-Interleaving output buffer
  66:../../libDaisy/src/hid/audio.h ****      * Arranged by float[chn][sample] 
  67:../../libDaisy/src/hid/audio.h ****      */
  68:../../libDaisy/src/hid/audio.h ****     typedef float** OutputBuffer;
  69:../../libDaisy/src/hid/audio.h **** 
  70:../../libDaisy/src/hid/audio.h ****     /** Type for a Non-Interleaving audio callback 
  71:../../libDaisy/src/hid/audio.h ****      * Non-Interleaving audio callbacks in daisy will be of this type
  72:../../libDaisy/src/hid/audio.h ****      */
ARM GAS  /var/folders/11/xdtqf_dx1yx09tgy7pcbkdzh0000gp/T//cca9poyW.s 			page 8


  73:../../libDaisy/src/hid/audio.h ****     typedef void (*AudioCallback)(InputBuffer  in,
  74:../../libDaisy/src/hid/audio.h ****                                   OutputBuffer out,
  75:../../libDaisy/src/hid/audio.h ****                                   size_t       size);
  76:../../libDaisy/src/hid/audio.h **** 
  77:../../libDaisy/src/hid/audio.h ****     /** Interleaving Input buffer
  78:../../libDaisy/src/hid/audio.h ****      ** audio is prepared as { L0, R0, L1, R1, . . . LN, RN }]
  79:../../libDaisy/src/hid/audio.h ****      ** this is const, as the user shouldn't modify it
  80:../../libDaisy/src/hid/audio.h ****     */
  81:../../libDaisy/src/hid/audio.h ****     typedef const float* InterleavingInputBuffer;
  82:../../libDaisy/src/hid/audio.h **** 
  83:../../libDaisy/src/hid/audio.h ****     /** Interleaving Output buffer 
  84:../../libDaisy/src/hid/audio.h ****      ** audio is prepared as { L0, R0, L1, R1, . . . LN, RN }
  85:../../libDaisy/src/hid/audio.h ****     */
  86:../../libDaisy/src/hid/audio.h ****     typedef float* InterleavingOutputBuffer;
  87:../../libDaisy/src/hid/audio.h **** 
  88:../../libDaisy/src/hid/audio.h ****     /** Interleaving Audio Callback 
  89:../../libDaisy/src/hid/audio.h ****      * Interleaving audio callbacks in daisy must be of this type
  90:../../libDaisy/src/hid/audio.h ****      */
  91:../../libDaisy/src/hid/audio.h ****     typedef void (*InterleavingAudioCallback)(InterleavingInputBuffer  in,
  92:../../libDaisy/src/hid/audio.h ****                                               InterleavingOutputBuffer out,
  93:../../libDaisy/src/hid/audio.h ****                                               size_t                   size);
  94:../../libDaisy/src/hid/audio.h **** 
  95:../../libDaisy/src/hid/audio.h ****     AudioHandle() : pimpl_(nullptr) {}
  96:../../libDaisy/src/hid/audio.h ****     ~AudioHandle() {}
  58              		.loc 6 96 5 is_stmt 1 view .LVU7
  59              		.loc 6 96 5 is_stmt 0 view .LVU8
  60              	.LBE56:
  61              	.LBE52:
  62              		.loc 2 22 19 view .LVU9
  63 0000 7047     		bx	lr
  64              		.cfi_endproc
  65              	.LFE2360:
  67              		.weak	_ZN5daisy9DaisySeedD1Ev
  68              		.thumb_set _ZN5daisy9DaisySeedD1Ev,_ZN5daisy9DaisySeedD2Ev
  69 0002 00BF     		.section	.text._Z13AudioCallbackPKPKfPPfj,"ax",%progbits
  70              		.align	1
  71              		.p2align 2,,3
  72              		.global	_Z13AudioCallbackPKPKfPPfj
  73              		.syntax unified
  74              		.thumb
  75              		.thumb_func
  77              	_Z13AudioCallbackPKPKfPPfj:
  78              	.LVL1:
  79              	.LFB4763:
   1:hearing_aid.cpp **** #include "daisy_seed.h"
   2:hearing_aid.cpp **** #include "daisysp.h"
   3:hearing_aid.cpp **** 
   4:hearing_aid.cpp **** #include "arm_math.h"
   5:hearing_aid.cpp **** 
   6:hearing_aid.cpp **** using namespace daisy;
   7:hearing_aid.cpp **** using namespace daisysp;
   8:hearing_aid.cpp **** 
   9:hearing_aid.cpp **** constexpr int SAMPLE_BUFFER_SIZE = 256;
  10:hearing_aid.cpp **** //why 1024? power of 2 requirement for fft, frequency resolution
  11:hearing_aid.cpp **** //buffer size is a good mix between memory and freq resolution
  12:hearing_aid.cpp **** constexpr int NUM_BANDS = 6;
  13:hearing_aid.cpp **** constexpr int FIR_TAP_COUNT = 127; // Number of taps in the FIR filter
ARM GAS  /var/folders/11/xdtqf_dx1yx09tgy7pcbkdzh0000gp/T//cca9poyW.s 			page 9


  14:hearing_aid.cpp **** 
  15:hearing_aid.cpp **** // Normalization factor for Hamming window with 50% overlap
  16:hearing_aid.cpp **** constexpr float WINDOW_COMPENSATION = 1.85f;
  17:hearing_aid.cpp **** 
  18:hearing_aid.cpp **** // Band gain adjustments - may need to be fine-tuned
  19:hearing_aid.cpp **** float band_gains[NUM_BANDS] = {0.8f, 0.9f, 1.0f, 1.0f, 0.9f, 0.8f};
  20:hearing_aid.cpp **** 
  21:hearing_aid.cpp **** DaisySeed hw;
  22:hearing_aid.cpp **** 
  23:hearing_aid.cpp **** //bool led_state = true;
  24:hearing_aid.cpp **** 
  25:hearing_aid.cpp **** float window[SAMPLE_BUFFER_SIZE];
  26:hearing_aid.cpp **** float windowed_data[SAMPLE_BUFFER_SIZE];
  27:hearing_aid.cpp **** 
  28:hearing_aid.cpp **** arm_fir_instance_f32 fir_filters[NUM_BANDS];
  29:hearing_aid.cpp **** float fir_states[NUM_BANDS][SAMPLE_BUFFER_SIZE + FIR_TAP_COUNT - 1] = {0.0f};
  30:hearing_aid.cpp **** float band_outputs[NUM_BANDS][SAMPLE_BUFFER_SIZE] = {0.0f}; // Separate buffers for each band
  31:hearing_aid.cpp **** 
  32:hearing_aid.cpp **** float fir_coeffs[NUM_BANDS][FIR_TAP_COUNT] = {
  33:hearing_aid.cpp **** 	{0.00018932,0.00022512,0.00026510,0.00031069,0.00036330,0.00042431,0.00049503,0.00057678,0.0006707
  34:hearing_aid.cpp **** 	{-0.00198384,-0.00200280,-0.00204509,-0.00211020,-0.00219714,-0.00230441,-0.00243006,-0.00257163,-
  35:hearing_aid.cpp **** 	{0.00111728,0.00114598,0.00117873,0.00121418,0.00124988,0.00128227,0.00130668,0.00131736,0.0013076
  36:hearing_aid.cpp **** 	{-0.00069445,-0.00063877,-0.00056550,-0.00047578,-0.00037106,-0.00025380,-0.00012807,0.00000000,0.
  37:hearing_aid.cpp **** 	{0.00068908,0.00056430,0.00032538,-0.00000000,-0.00036435,-0.00070543,-0.00095617,-0.00105928,-0.0
  38:hearing_aid.cpp **** 	{-0.00040349,0.00000000,0.00015689,-0.00000000,-0.00017568,0.00000000,0.00055989,0.00105887,0.0009
  39:hearing_aid.cpp **** };
  40:hearing_aid.cpp **** 
  41:hearing_aid.cpp **** void InitCMSISFilters()
  42:hearing_aid.cpp **** {
  43:hearing_aid.cpp ****     for(int i = 0; i < NUM_BANDS; ++i)
  44:hearing_aid.cpp ****     {
  45:hearing_aid.cpp ****         arm_fir_init_f32(&fir_filters[i], FIR_TAP_COUNT, fir_coeffs[i], fir_states[i], SAMPLE_BUFFE
  46:hearing_aid.cpp ****     }
  47:hearing_aid.cpp **** }
  48:hearing_aid.cpp **** 
  49:hearing_aid.cpp **** 
  50:hearing_aid.cpp **** void create_hamming_window(float* window, int size) {
  51:hearing_aid.cpp ****     for(int i = 0; i < size; i++){
  52:hearing_aid.cpp ****         window[i] = 0.54f - 0.46f * cosf((2.0f * M_PI * i)/(size-1));
  53:hearing_aid.cpp ****     }
  54:hearing_aid.cpp **** }
  55:hearing_aid.cpp **** 
  56:hearing_aid.cpp **** 
  57:hearing_aid.cpp **** 
  58:hearing_aid.cpp **** void AudioCallback(AudioHandle::InputBuffer in, AudioHandle::OutputBuffer out, size_t size)
  59:hearing_aid.cpp **** {
  80              		.loc 1 59 1 is_stmt 1 view -0
  81              		.cfi_startproc
  82              		@ args = 0, pretend = 0, frame = 0
  83              		@ frame_needed = 0, uses_anonymous_args = 0
  60:hearing_aid.cpp **** 	//window function 
  61:hearing_aid.cpp **** 	for(size_t i = 0; i < size; i++){
  84              		.loc 1 61 2 view .LVU11
  85              	.LBB57:
  86              		.loc 1 61 22 discriminator 1 view .LVU12
  87 0000 9AB3     		cbz	r2, .L18
  88 0002 0368     		ldr	r3, [r0]
ARM GAS  /var/folders/11/xdtqf_dx1yx09tgy7pcbkdzh0000gp/T//cca9poyW.s 			page 10


  89 0004 1948     		ldr	r0, .L21
  90              	.LVL2:
  91              		.loc 1 61 22 is_stmt 0 discriminator 1 view .LVU13
  92              	.LBE57:
  59:hearing_aid.cpp **** 	//window function 
  93              		.loc 1 59 1 view .LVU14
  94 0006 10B5     		push	{r4, lr}
  95              		.cfi_def_cfa_offset 8
  96              		.cfi_offset 4, -8
  97              		.cfi_offset 14, -4
  98              	.LBB58:
  62:hearing_aid.cpp **** 		windowed_data[i] = in[0][i] * window[i];
  99              		.loc 1 62 26 view .LVU15
 100 0008 8446     		mov	ip, r0
 101 000a 4FEA820E 		lsl	lr, r2, #2
 102 000e 184C     		ldr	r4, .L21+4
 103 0010 03EB8202 		add	r2, r3, r2, lsl #2
 104              	.LVL3:
 105              	.L5:
 106              		.loc 1 62 3 is_stmt 1 view .LVU16
 107              		.loc 1 62 29 is_stmt 0 view .LVU17
 108 0014 F3EC017A 		vldmia.32	r3!, {s15}
 109              		.loc 1 62 41 view .LVU18
 110 0018 B4EC017A 		vldmia.32	r4!, {s14}
  61:hearing_aid.cpp **** 		windowed_data[i] = in[0][i] * window[i];
 111              		.loc 1 61 22 discriminator 1 view .LVU19
 112 001c 9342     		cmp	r3, r2
 113              		.loc 1 62 31 view .LVU20
 114 001e 67EE877A 		vmul.f32	s15, s15, s14
 115              		.loc 1 62 20 view .LVU21
 116 0022 ECEC017A 		vstmia.32	ip!, {s15}
  61:hearing_aid.cpp **** 		windowed_data[i] = in[0][i] * window[i];
 117              		.loc 1 61 2 is_stmt 1 discriminator 3 view .LVU22
  61:hearing_aid.cpp **** 		windowed_data[i] = in[0][i] * window[i];
 118              		.loc 1 61 22 discriminator 1 view .LVU23
 119 0026 F5D1     		bne	.L5
 120 0028 00EB0E02 		add	r2, r0, lr
 121 002c 0F4B     		ldr	r3, .L21
 122              	.LBE58:
  63:hearing_aid.cpp **** 		
  64:hearing_aid.cpp **** 	}
  65:hearing_aid.cpp **** 
  66:hearing_aid.cpp **** 	float norm_sum = 0.0f;
 123              		.loc 1 66 8 is_stmt 0 view .LVU24
 124 002e DFED117A 		vldr.32	s15, .L21+8
 125              	.L6:
 126              	.LVL4:
 127              	.LBB59:
  67:hearing_aid.cpp **** 	for(size_t i = 0; i < size; i++) {
  68:hearing_aid.cpp ****     	norm_sum += windowed_data[i];
 128              		.loc 1 68 6 is_stmt 1 view .LVU25
 129              		.loc 1 68 33 is_stmt 0 view .LVU26
 130 0032 B3EC017A 		vldmia.32	r3!, {s14}
  67:hearing_aid.cpp **** 	for(size_t i = 0; i < size; i++) {
 131              		.loc 1 67 22 discriminator 1 view .LVU27
 132 0036 9342     		cmp	r3, r2
 133              		.loc 1 68 15 view .LVU28
ARM GAS  /var/folders/11/xdtqf_dx1yx09tgy7pcbkdzh0000gp/T//cca9poyW.s 			page 11


 134 0038 77EE877A 		vadd.f32	s15, s15, s14
 135              	.LVL5:
  67:hearing_aid.cpp **** 	for(size_t i = 0; i < size; i++) {
 136              		.loc 1 67 2 is_stmt 1 discriminator 3 view .LVU29
  67:hearing_aid.cpp **** 	for(size_t i = 0; i < size; i++) {
 137              		.loc 1 67 22 discriminator 1 view .LVU30
 138 003c F9D1     		bne	.L6
 139 003e 0B4B     		ldr	r3, .L21
 140              	.L7:
 141              	.LBE59:
 142              	.LBB60:
  69:hearing_aid.cpp **** 	}
  70:hearing_aid.cpp **** 	for(size_t i = 0; i < size; i++) {
  71:hearing_aid.cpp ****    		windowed_data[i] /= norm_sum;
 143              		.loc 1 71 6 view .LVU31
 144              		.loc 1 71 21 is_stmt 0 view .LVU32
 145 0040 D3ED006A 		vldr.32	s13, [r3]
 146              		.loc 1 71 23 view .LVU33
 147 0044 86EEA77A 		vdiv.f32	s14, s13, s15
 148 0048 A3EC017A 		vstmia.32	r3!, {s14}
  70:hearing_aid.cpp ****    		windowed_data[i] /= norm_sum;
 149              		.loc 1 70 2 is_stmt 1 discriminator 3 view .LVU34
  70:hearing_aid.cpp ****    		windowed_data[i] /= norm_sum;
 150              		.loc 1 70 22 discriminator 1 view .LVU35
 151 004c 9342     		cmp	r3, r2
 152 004e F7D1     		bne	.L7
 153 0050 D1E90031 		ldrd	r3, r1, [r1]
 154              	.LVL6:
  70:hearing_aid.cpp ****    		windowed_data[i] /= norm_sum;
 155              		.loc 1 70 22 is_stmt 0 discriminator 1 view .LVU36
 156 0054 03EB0E04 		add	r4, r3, lr
 157              	.L9:
 158              	.LBE60:
 159              	.LBB61:
 160              	.LBB62:
  72:hearing_aid.cpp **** 	}
  73:hearing_aid.cpp **** 
  74:hearing_aid.cpp **** 	// //split signal into subbands
  75:hearing_aid.cpp **** 	// for(int band = 0; band < NUM_BANDS; band++)
  76:hearing_aid.cpp ****     // {
  77:hearing_aid.cpp ****     //     arm_fir_f32(&fir_filters[band], windowed_data, band_outputs[band], size);
  78:hearing_aid.cpp ****     // }
  79:hearing_aid.cpp **** 
  80:hearing_aid.cpp **** 
  81:hearing_aid.cpp **** 	//perform VAD on each subband to determine which has speech and noise and which has only noise
  82:hearing_aid.cpp **** 	//feature extraction
  83:hearing_aid.cpp **** 
  84:hearing_aid.cpp **** 
  85:hearing_aid.cpp **** 	//if speech NLMS
  86:hearing_aid.cpp **** 
  87:hearing_aid.cpp **** 
  88:hearing_aid.cpp **** 	//reconstruct the signal
  89:hearing_aid.cpp **** 	// for(size_t i = 0; i < size; i++){
  90:hearing_aid.cpp **** 	// 	float sum = 0.0f;
  91:hearing_aid.cpp **** 	// 	for(int band = 0; band < NUM_BANDS; band++)
  92:hearing_aid.cpp **** 	// 	{
  93:hearing_aid.cpp **** 	// 		sum += band_outputs[band][i];
ARM GAS  /var/folders/11/xdtqf_dx1yx09tgy7pcbkdzh0000gp/T//cca9poyW.s 			page 12


  94:hearing_aid.cpp **** 	// 	}
  95:hearing_aid.cpp **** 
  96:hearing_aid.cpp **** 	// 	out[0][i] = sum;
  97:hearing_aid.cpp **** 	// 	out[1][i] = sum;
  98:hearing_aid.cpp **** 	// }
  99:hearing_aid.cpp **** 
 100:hearing_aid.cpp **** 	for(size_t i = 0; i < size; i++){
 101:hearing_aid.cpp **** 		float val = windowed_data[i];
 161              		.loc 1 101 3 is_stmt 1 view .LVU37
 162              		.loc 1 101 9 is_stmt 0 view .LVU38
 163 0058 50F8042B 		ldr	r2, [r0], #4	@ float
 164              	.LVL7:
 102:hearing_aid.cpp **** 		out[0][i] = val;
 165              		.loc 1 102 3 is_stmt 1 view .LVU39
 166              		.loc 1 102 13 is_stmt 0 view .LVU40
 167 005c 43F8042B 		str	r2, [r3], #4	@ float
 103:hearing_aid.cpp **** 		out[1][i] = val;
 168              		.loc 1 103 3 is_stmt 1 view .LVU41
 169              	.LBE62:
 100:hearing_aid.cpp **** 		float val = windowed_data[i];
 170              		.loc 1 100 22 is_stmt 0 discriminator 1 view .LVU42
 171 0060 A342     		cmp	r3, r4
 172              	.LBB63:
 173              		.loc 1 103 13 view .LVU43
 174 0062 41F8042B 		str	r2, [r1], #4	@ float
 175              	.LBE63:
 100:hearing_aid.cpp **** 		float val = windowed_data[i];
 176              		.loc 1 100 2 is_stmt 1 discriminator 3 view .LVU44
 100:hearing_aid.cpp **** 		float val = windowed_data[i];
 177              		.loc 1 100 22 discriminator 1 view .LVU45
 178 0066 F7D1     		bne	.L9
 179              	.LBE61:
 104:hearing_aid.cpp **** 	}
 105:hearing_aid.cpp **** 
 106:hearing_aid.cpp **** 
 107:hearing_aid.cpp **** 	
 108:hearing_aid.cpp **** 
 109:hearing_aid.cpp **** 	// out[0][i] = in[0][i];
 110:hearing_aid.cpp **** 	// out[1][i] = in[1][i];
 111:hearing_aid.cpp **** 	
 112:hearing_aid.cpp **** }
 180              		.loc 1 112 1 is_stmt 0 view .LVU46
 181 0068 10BD     		pop	{r4, pc}
 182              	.LVL8:
 183              	.L18:
 184              		.cfi_def_cfa_offset 0
 185              		.cfi_restore 4
 186              		.cfi_restore 14
 187              		.loc 1 112 1 view .LVU47
 188 006a 7047     		bx	lr
 189              	.L22:
 190              		.align	2
 191              	.L21:
 192 006c 00000000 		.word	windowed_data
 193 0070 00000000 		.word	window
 194 0074 00000000 		.word	0
 195              		.cfi_endproc
ARM GAS  /var/folders/11/xdtqf_dx1yx09tgy7pcbkdzh0000gp/T//cca9poyW.s 			page 13


 196              	.LFE4763:
 198              		.section	.text._Z16InitCMSISFiltersv,"ax",%progbits
 199              		.align	1
 200              		.p2align 2,,3
 201              		.global	_Z16InitCMSISFiltersv
 202              		.syntax unified
 203              		.thumb
 204              		.thumb_func
 206              	_Z16InitCMSISFiltersv:
 207              	.LFB4761:
  42:hearing_aid.cpp ****     for(int i = 0; i < NUM_BANDS; ++i)
 208              		.loc 1 42 1 is_stmt 1 view -0
 209              		.cfi_startproc
 210              		@ args = 0, pretend = 0, frame = 0
 211              		@ frame_needed = 0, uses_anonymous_args = 0
  43:hearing_aid.cpp ****     {
 212              		.loc 1 43 5 view .LVU49
 213              	.LVL9:
 214              	.LBB64:
  43:hearing_aid.cpp ****     {
 215              		.loc 1 43 22 discriminator 1 view .LVU50
 216              	.LBE64:
  42:hearing_aid.cpp ****     for(int i = 0; i < NUM_BANDS; ++i)
 217              		.loc 1 42 1 is_stmt 0 view .LVU51
 218 0000 2DE9F041 		push	{r4, r5, r6, r7, r8, lr}
 219              		.cfi_def_cfa_offset 24
 220              		.cfi_offset 4, -24
 221              		.cfi_offset 5, -20
 222              		.cfi_offset 6, -16
 223              		.cfi_offset 7, -12
 224              		.cfi_offset 8, -8
 225              		.cfi_offset 14, -4
 226 0004 0C4C     		ldr	r4, .L27
 227 0006 82B0     		sub	sp, sp, #8
 228              		.cfi_def_cfa_offset 32
 229 0008 0C4E     		ldr	r6, .L27+4
 230 000a 0D4D     		ldr	r5, .L27+8
 231 000c 04F14808 		add	r8, r4, #72
 232              	.LVL10:
 233              	.L24:
 234              	.LBB65:
  45:hearing_aid.cpp ****     }
 235              		.loc 1 45 9 is_stmt 1 view .LVU52
  45:hearing_aid.cpp ****     }
 236              		.loc 1 45 25 is_stmt 0 view .LVU53
 237 0010 4FF48077 		mov	r7, #256
 238 0014 2046     		mov	r0, r4
  43:hearing_aid.cpp ****     {
 239              		.loc 1 43 22 discriminator 1 view .LVU54
 240 0016 0C34     		adds	r4, r4, #12
  45:hearing_aid.cpp ****     }
 241              		.loc 1 45 25 view .LVU55
 242 0018 2B46     		mov	r3, r5
 243 001a 3246     		mov	r2, r6
 244 001c 7F21     		movs	r1, #127
 245 001e 0097     		str	r7, [sp]
  43:hearing_aid.cpp ****     {
ARM GAS  /var/folders/11/xdtqf_dx1yx09tgy7pcbkdzh0000gp/T//cca9poyW.s 			page 14


 246              		.loc 1 43 22 discriminator 1 view .LVU56
 247 0020 06F5FE76 		add	r6, r6, #508
  45:hearing_aid.cpp ****     }
 248              		.loc 1 45 25 view .LVU57
 249 0024 FFF7FEFF 		bl	arm_fir_init_f32
 250              	.LVL11:
  43:hearing_aid.cpp ****     {
 251              		.loc 1 43 5 is_stmt 1 discriminator 3 view .LVU58
  43:hearing_aid.cpp ****     {
 252              		.loc 1 43 22 discriminator 1 view .LVU59
 253 0028 4445     		cmp	r4, r8
 254 002a 05F5BF65 		add	r5, r5, #1528
 255 002e EFD1     		bne	.L24
 256              	.LBE65:
  47:hearing_aid.cpp **** 
 257              		.loc 1 47 1 is_stmt 0 view .LVU60
 258 0030 02B0     		add	sp, sp, #8
 259              		.cfi_def_cfa_offset 24
 260              		@ sp needed
 261 0032 BDE8F081 		pop	{r4, r5, r6, r7, r8, pc}
 262              	.L28:
 263 0036 00BF     		.align	2
 264              	.L27:
 265 0038 00000000 		.word	fir_filters
 266 003c 00000000 		.word	fir_coeffs
 267 0040 00000000 		.word	fir_states
 268              		.cfi_endproc
 269              	.LFE4761:
 271              		.section	.text._Z21create_hamming_windowPfi,"ax",%progbits
 272              		.align	1
 273              		.p2align 2,,3
 274              		.global	_Z21create_hamming_windowPfi
 275              		.syntax unified
 276              		.thumb
 277              		.thumb_func
 279              	_Z21create_hamming_windowPfi:
 280              	.LVL12:
 281              	.LFB4762:
  50:hearing_aid.cpp ****     for(int i = 0; i < size; i++){
 282              		.loc 1 50 53 is_stmt 1 view -0
 283              		.cfi_startproc
 284              		@ args = 0, pretend = 0, frame = 0
 285              		@ frame_needed = 0, uses_anonymous_args = 0
  51:hearing_aid.cpp ****         window[i] = 0.54f - 0.46f * cosf((2.0f * M_PI * i)/(size-1));
 286              		.loc 1 51 5 view .LVU62
 287              	.LBB66:
  51:hearing_aid.cpp ****         window[i] = 0.54f - 0.46f * cosf((2.0f * M_PI * i)/(size-1));
 288              		.loc 1 51 22 discriminator 1 view .LVU63
 289              	.LBE66:
  50:hearing_aid.cpp ****     for(int i = 0; i < size; i++){
 290              		.loc 1 50 53 is_stmt 0 view .LVU64
 291 0000 70B5     		push	{r4, r5, r6, lr}
 292              		.cfi_def_cfa_offset 16
 293              		.cfi_offset 4, -16
 294              		.cfi_offset 5, -12
 295              		.cfi_offset 6, -8
 296              		.cfi_offset 14, -4
ARM GAS  /var/folders/11/xdtqf_dx1yx09tgy7pcbkdzh0000gp/T//cca9poyW.s 			page 15


 297              	.LBB67:
  51:hearing_aid.cpp ****         window[i] = 0.54f - 0.46f * cosf((2.0f * M_PI * i)/(size-1));
 298              		.loc 1 51 22 discriminator 1 view .LVU65
 299 0002 0E1E     		subs	r6, r1, #0
 300              	.LBE67:
  50:hearing_aid.cpp ****     for(int i = 0; i < size; i++){
 301              		.loc 1 50 53 view .LVU66
 302 0004 2DED028B 		vpush.64	{d8}
 303              		.cfi_def_cfa_offset 24
 304              		.cfi_offset 80, -24
 305              		.cfi_offset 81, -20
 306              	.LBB68:
  51:hearing_aid.cpp ****         window[i] = 0.54f - 0.46f * cosf((2.0f * M_PI * i)/(size-1));
 307              		.loc 1 51 22 discriminator 1 view .LVU67
 308 0008 1FDD     		ble	.L29
  52:hearing_aid.cpp ****     }
 309              		.loc 1 52 65 view .LVU68
 310 000a 731E     		subs	r3, r6, #1
 311 000c 0546     		mov	r5, r0
  51:hearing_aid.cpp ****         window[i] = 0.54f - 0.46f * cosf((2.0f * M_PI * i)/(size-1));
 312              		.loc 1 51 13 view .LVU69
 313 000e 0024     		movs	r4, #0
  52:hearing_aid.cpp ****     }
 314              		.loc 1 52 59 view .LVU70
 315 0010 07EE903A 		vmov	s15, r3	@ int
 316 0014 B8EEE78B 		vcvt.f64.s32	d8, s15
 317              	.LVL13:
 318              	.L31:
  52:hearing_aid.cpp ****     }
 319              		.loc 1 52 9 is_stmt 1 view .LVU71
  52:hearing_aid.cpp ****     }
 320              		.loc 1 52 55 is_stmt 0 view .LVU72
 321 0018 07EE904A 		vmov	s15, r4	@ int
  51:hearing_aid.cpp ****         window[i] = 0.54f - 0.46f * cosf((2.0f * M_PI * i)/(size-1));
 322              		.loc 1 51 5 discriminator 3 view .LVU73
 323 001c 0134     		adds	r4, r4, #1
 324              	.LVL14:
  52:hearing_aid.cpp ****     }
 325              		.loc 1 52 55 view .LVU74
 326 001e 9FED0C6B 		vldr.64	d6, .L35
 327 0022 B8EEE77B 		vcvt.f64.s32	d7, s15
 328 0026 27EE067B 		vmul.f64	d7, d7, d6
  52:hearing_aid.cpp ****     }
 329              		.loc 1 52 59 view .LVU75
 330 002a 87EE080B 		vdiv.f64	d0, d7, d8
  52:hearing_aid.cpp ****     }
 331              		.loc 1 52 41 view .LVU76
 332 002e B7EEC00B 		vcvt.f32.f64	s0, d0
 333 0032 FFF7FEFF 		bl	cosf
 334              	.LVL15:
  52:hearing_aid.cpp ****     }
 335              		.loc 1 52 27 discriminator 1 view .LVU77
 336 0036 9FED087A 		vldr.32	s14, .L35+8
 337 003a DFED087A 		vldr.32	s15, .L35+12
  51:hearing_aid.cpp ****         window[i] = 0.54f - 0.46f * cosf((2.0f * M_PI * i)/(size-1));
 338              		.loc 1 51 22 discriminator 1 view .LVU78
 339 003e A642     		cmp	r6, r4
ARM GAS  /var/folders/11/xdtqf_dx1yx09tgy7pcbkdzh0000gp/T//cca9poyW.s 			page 16


  52:hearing_aid.cpp ****     }
 340              		.loc 1 52 27 discriminator 1 view .LVU79
 341 0040 E0EE477A 		vfms.f32	s15, s0, s14
  52:hearing_aid.cpp ****     }
 342              		.loc 1 52 19 discriminator 1 view .LVU80
 343 0044 E5EC017A 		vstmia.32	r5!, {s15}
  51:hearing_aid.cpp ****         window[i] = 0.54f - 0.46f * cosf((2.0f * M_PI * i)/(size-1));
 344              		.loc 1 51 5 is_stmt 1 discriminator 3 view .LVU81
 345              	.LVL16:
  51:hearing_aid.cpp ****         window[i] = 0.54f - 0.46f * cosf((2.0f * M_PI * i)/(size-1));
 346              		.loc 1 51 22 discriminator 1 view .LVU82
 347 0048 E6D1     		bne	.L31
 348              	.LVL17:
 349              	.L29:
  51:hearing_aid.cpp ****         window[i] = 0.54f - 0.46f * cosf((2.0f * M_PI * i)/(size-1));
 350              		.loc 1 51 22 is_stmt 0 discriminator 1 view .LVU83
 351              	.LBE68:
  54:hearing_aid.cpp **** 
 352              		.loc 1 54 1 view .LVU84
 353 004a BDEC028B 		vldm	sp!, {d8}
 354              		.cfi_restore 80
 355              		.cfi_restore 81
 356              		.cfi_def_cfa_offset 16
 357 004e 70BD     		pop	{r4, r5, r6, pc}
 358              	.LVL18:
 359              	.L36:
  54:hearing_aid.cpp **** 
 360              		.loc 1 54 1 view .LVU85
 361              		.align	3
 362              	.L35:
 363 0050 182D4454 		.word	1413754136
 364 0054 FB211940 		.word	1075388923
 365 0058 1F85EB3E 		.word	1055622431
 366 005c 713D0A3F 		.word	1057635697
 367              		.cfi_endproc
 368              	.LFE4762:
 370              		.section	.text.startup.main,"ax",%progbits
 371              		.align	1
 372              		.p2align 2,,3
 373              		.global	main
 374              		.syntax unified
 375              		.thumb
 376              		.thumb_func
 378              	main:
 379              	.LFB4764:
 113:hearing_aid.cpp **** 
 114:hearing_aid.cpp **** 
 115:hearing_aid.cpp **** 
 116:hearing_aid.cpp **** 
 117:hearing_aid.cpp **** int main(void)
 118:hearing_aid.cpp **** {
 380              		.loc 1 118 1 is_stmt 1 view -0
 381              		.cfi_startproc
 382              		@ Volatile: function does not return.
 383              		@ args = 0, pretend = 0, frame = 0
 384              		@ frame_needed = 0, uses_anonymous_args = 0
 119:hearing_aid.cpp **** 
ARM GAS  /var/folders/11/xdtqf_dx1yx09tgy7pcbkdzh0000gp/T//cca9poyW.s 			page 17


 120:hearing_aid.cpp **** 
 121:hearing_aid.cpp **** 	hw.Init();
 385              		.loc 1 121 2 view .LVU87
 118:hearing_aid.cpp **** 
 386              		.loc 1 118 1 is_stmt 0 view .LVU88
 387 0000 08B5     		push	{r3, lr}
 388              		.cfi_def_cfa_offset 8
 389              		.cfi_offset 3, -8
 390              		.cfi_offset 14, -4
 391              		.loc 1 121 9 view .LVU89
 392 0002 0021     		movs	r1, #0
 393 0004 0A48     		ldr	r0, .L40
 394 0006 FFF7FEFF 		bl	_ZN5daisy9DaisySeed4InitEb
 395              	.LVL19:
 122:hearing_aid.cpp **** 
 123:hearing_aid.cpp **** 	//hw.StartLog(true);
 124:hearing_aid.cpp **** 
 125:hearing_aid.cpp **** 	//hw.PrintLine("Hello World!");
 126:hearing_aid.cpp **** 
 127:hearing_aid.cpp **** 	hw.SetAudioBlockSize(SAMPLE_BUFFER_SIZE); // number of samples handled per callback
 396              		.loc 1 127 2 is_stmt 1 view .LVU90
 397              		.loc 1 127 22 is_stmt 0 view .LVU91
 398 000a 4FF48071 		mov	r1, #256
 399 000e 0848     		ldr	r0, .L40
 400 0010 FFF7FEFF 		bl	_ZN5daisy9DaisySeed17SetAudioBlockSizeEj
 401              	.LVL20:
 128:hearing_aid.cpp **** 	hw.SetAudioSampleRate(SaiHandle::Config::SampleRate::SAI_48KHZ);
 402              		.loc 1 128 2 is_stmt 1 view .LVU92
 403              		.loc 1 128 23 is_stmt 0 view .LVU93
 404 0014 0321     		movs	r1, #3
 405 0016 0648     		ldr	r0, .L40
 406 0018 FFF7FEFF 		bl	_ZN5daisy9DaisySeed18SetAudioSampleRateENS_9SaiHandle6Config10SampleRateE
 407              	.LVL21:
 129:hearing_aid.cpp **** 	//InitCMSISFilters();
 130:hearing_aid.cpp **** 	create_hamming_window(window, SAMPLE_BUFFER_SIZE);
 408              		.loc 1 130 2 is_stmt 1 view .LVU94
 409              		.loc 1 130 23 is_stmt 0 view .LVU95
 410 001c 4FF48071 		mov	r1, #256
 411 0020 0448     		ldr	r0, .L40+4
 412 0022 FFF7FEFF 		bl	_Z21create_hamming_windowPfi
 413              	.LVL22:
 131:hearing_aid.cpp **** 
 132:hearing_aid.cpp **** 
 133:hearing_aid.cpp **** 	hw.StartAudio(AudioCallback);
 414              		.loc 1 133 2 is_stmt 1 view .LVU96
 415              		.loc 1 133 15 is_stmt 0 view .LVU97
 416 0026 0449     		ldr	r1, .L40+8
 417 0028 0148     		ldr	r0, .L40
 418 002a FFF7FEFF 		bl	_ZN5daisy9DaisySeed10StartAudioEPFvPKPKfPPfjE
 419              	.LVL23:
 420              	.L38:
 134:hearing_aid.cpp **** 
 135:hearing_aid.cpp **** 	
 136:hearing_aid.cpp **** 
 137:hearing_aid.cpp **** 	while(1) {
 421              		.loc 1 137 2 is_stmt 1 view .LVU98
 422              		.loc 1 137 2 view .LVU99
ARM GAS  /var/folders/11/xdtqf_dx1yx09tgy7pcbkdzh0000gp/T//cca9poyW.s 			page 18


 423              		.loc 1 137 2 view .LVU100
 424              		.loc 1 137 2 view .LVU101
 425 002e FEE7     		b	.L38
 426              	.L41:
 427              		.align	2
 428              	.L40:
 429 0030 00000000 		.word	hw
 430 0034 00000000 		.word	window
 431 0038 00000000 		.word	_Z13AudioCallbackPKPKfPPfj
 432              		.cfi_endproc
 433              	.LFE4764:
 435              		.section	.text.startup._GLOBAL__sub_I_band_gains,"ax",%progbits
 436              		.align	1
 437              		.p2align 2,,3
 438              		.syntax unified
 439              		.thumb
 440              		.thumb_func
 442              	_GLOBAL__sub_I_band_gains:
 443              	.LFB5368:
 138:hearing_aid.cpp **** 
 139:hearing_aid.cpp **** 	}
 140:hearing_aid.cpp **** }
 444              		.loc 1 140 1 view -0
 445              		.cfi_startproc
 446              		@ args = 0, pretend = 0, frame = 0
 447              		@ frame_needed = 0, uses_anonymous_args = 0
 448              		@ link register save eliminated.
 449              	.LBB90:
 450              	.LBI90:
 451              		.loc 1 140 1 view .LVU103
 452              	.LVL24:
 453              	.LBB91:
 454              	.LBB92:
 455              	.LBI92:
  21:../../libDaisy/src/daisy_seed.h ****     ~DaisySeed() {}
 456              		.loc 2 21 5 view .LVU104
 457              	.LBB93:
 458              	.LBB94:
 459              	.LBI94:
 460              		.file 7 "../../libDaisy/src/per/qspi.h"
   1:../../libDaisy/src/per/qspi.h **** #ifndef DSY_QSPI
   2:../../libDaisy/src/per/qspi.h **** #define DSY_QSPI /**< Macro */
   3:../../libDaisy/src/per/qspi.h **** 
   4:../../libDaisy/src/per/qspi.h **** #ifndef UNIT_TEST // for unit tests, a dummy implementation
   5:../../libDaisy/src/per/qspi.h **** 
   6:../../libDaisy/src/per/qspi.h **** #include <cstdint>
   7:../../libDaisy/src/per/qspi.h **** #include "daisy_core.h" // Added for dsy_gpio_pin typedef
   8:../../libDaisy/src/per/qspi.h **** 
   9:../../libDaisy/src/per/qspi.h **** #define DSY_QSPI_TEXT       \
  10:../../libDaisy/src/per/qspi.h ****     __attribute__((section( \
  11:../../libDaisy/src/per/qspi.h ****         ".qspiflash_text"))) /**< used for reading memory in memory_mapped mode. */
  12:../../libDaisy/src/per/qspi.h **** #define DSY_QSPI_DATA       \
  13:../../libDaisy/src/per/qspi.h ****     __attribute__((section( \
  14:../../libDaisy/src/per/qspi.h ****         ".qspiflash_data"))) /**< used for reading memory in memory_mapped mode. */
  15:../../libDaisy/src/per/qspi.h **** #define DSY_QSPI_BSS        \
  16:../../libDaisy/src/per/qspi.h ****     __attribute__((section( \
  17:../../libDaisy/src/per/qspi.h ****         ".qspiflash_bss"))) /**< used for reading memory in memory_mapped mode. */
ARM GAS  /var/folders/11/xdtqf_dx1yx09tgy7pcbkdzh0000gp/T//cca9poyW.s 			page 19


  18:../../libDaisy/src/per/qspi.h **** 
  19:../../libDaisy/src/per/qspi.h **** namespace daisy
  20:../../libDaisy/src/per/qspi.h **** {
  21:../../libDaisy/src/per/qspi.h **** /** @addtogroup serial
  22:../../libDaisy/src/per/qspi.h **** @{
  23:../../libDaisy/src/per/qspi.h **** */
  24:../../libDaisy/src/per/qspi.h **** 
  25:../../libDaisy/src/per/qspi.h **** /** 
  26:../../libDaisy/src/per/qspi.h ****  Driver for QSPI peripheral to interface with external flash memory. \n 
  27:../../libDaisy/src/per/qspi.h ****     Currently supported QSPI Devices: \n 
  28:../../libDaisy/src/per/qspi.h ****     * IS25LP080D
  29:../../libDaisy/src/per/qspi.h **** */
  30:../../libDaisy/src/per/qspi.h **** class QSPIHandle
  31:../../libDaisy/src/per/qspi.h **** {
  32:../../libDaisy/src/per/qspi.h ****   public:
  33:../../libDaisy/src/per/qspi.h ****     enum Result
  34:../../libDaisy/src/per/qspi.h ****     {
  35:../../libDaisy/src/per/qspi.h ****         OK = 0,
  36:../../libDaisy/src/per/qspi.h ****         ERR
  37:../../libDaisy/src/per/qspi.h ****     };
  38:../../libDaisy/src/per/qspi.h **** 
  39:../../libDaisy/src/per/qspi.h ****     /** Indicates the current status of the module. 
  40:../../libDaisy/src/per/qspi.h ****          *  Warnings are indicated by a leading W.
  41:../../libDaisy/src/per/qspi.h ****          *  Errors are indicated by a leading E and cause an immediate exit.
  42:../../libDaisy/src/per/qspi.h ****          * 
  43:../../libDaisy/src/per/qspi.h ****          *  \param GOOD - No errors have been reported.
  44:../../libDaisy/src/per/qspi.h ****          *  \param E_HAL_ERROR - HAL code did not return HAL_OK.
  45:../../libDaisy/src/per/qspi.h ****          *  \param E_SWITCHING_MODES - An error was encountered while switching QSPI peripheral mod
  46:../../libDaisy/src/per/qspi.h ****          *  \param E_INVALID_MODE - QSPI should not be written to while the program is executing fr
  47:../../libDaisy/src/per/qspi.h ****          */
  48:../../libDaisy/src/per/qspi.h ****     enum Status
  49:../../libDaisy/src/per/qspi.h ****     {
  50:../../libDaisy/src/per/qspi.h ****         GOOD = 0,
  51:../../libDaisy/src/per/qspi.h ****         E_HAL_ERROR,
  52:../../libDaisy/src/per/qspi.h ****         E_SWITCHING_MODES,
  53:../../libDaisy/src/per/qspi.h ****         E_INVALID_MODE,
  54:../../libDaisy/src/per/qspi.h ****     };
  55:../../libDaisy/src/per/qspi.h **** 
  56:../../libDaisy/src/per/qspi.h ****     /** Configuration structure for interfacing with QSPI Driver */
  57:../../libDaisy/src/per/qspi.h ****     struct Config
  58:../../libDaisy/src/per/qspi.h ****     {
  59:../../libDaisy/src/per/qspi.h ****         /** Flash Devices supported. (Both of these are more-or-less the same, just different sizes
  60:../../libDaisy/src/per/qspi.h ****         enum Device
  61:../../libDaisy/src/per/qspi.h ****         {
  62:../../libDaisy/src/per/qspi.h ****             IS25LP080D,  /**< & */
  63:../../libDaisy/src/per/qspi.h ****             IS25LP064A,  /**< & */
  64:../../libDaisy/src/per/qspi.h ****             DEVICE_LAST, /**< & */
  65:../../libDaisy/src/per/qspi.h ****         };
  66:../../libDaisy/src/per/qspi.h **** 
  67:../../libDaisy/src/per/qspi.h ****         /** 
  68:../../libDaisy/src/per/qspi.h ****         Modes of operation.
  69:../../libDaisy/src/per/qspi.h ****         Memory Mapped mode: QSPI configured so that the QSPI can be
  70:../../libDaisy/src/per/qspi.h ****         read from starting address 0x90000000. Writing is not
  71:../../libDaisy/src/per/qspi.h ****         possible in this mode. \n 
  72:../../libDaisy/src/per/qspi.h ****         Indirect Polling mode: Device driver enabled. 
  73:../../libDaisy/src/per/qspi.h ****         */
  74:../../libDaisy/src/per/qspi.h ****         enum Mode
ARM GAS  /var/folders/11/xdtqf_dx1yx09tgy7pcbkdzh0000gp/T//cca9poyW.s 			page 20


  75:../../libDaisy/src/per/qspi.h ****         {
  76:../../libDaisy/src/per/qspi.h ****             MEMORY_MAPPED,    /**< & */
  77:../../libDaisy/src/per/qspi.h ****             INDIRECT_POLLING, /**< & */
  78:../../libDaisy/src/per/qspi.h ****             MODE_LAST,
  79:../../libDaisy/src/per/qspi.h ****         };
  80:../../libDaisy/src/per/qspi.h **** 
  81:../../libDaisy/src/per/qspi.h ****         //SCK,  CE# (active low)
  82:../../libDaisy/src/per/qspi.h ****         struct
  83:../../libDaisy/src/per/qspi.h ****         {
  84:../../libDaisy/src/per/qspi.h ****             dsy_gpio_pin io0; /**< & */
  85:../../libDaisy/src/per/qspi.h ****             dsy_gpio_pin io1; /**< & */
  86:../../libDaisy/src/per/qspi.h ****             dsy_gpio_pin io2; /**< & */
  87:../../libDaisy/src/per/qspi.h ****             dsy_gpio_pin io3; /**< & */
  88:../../libDaisy/src/per/qspi.h ****             dsy_gpio_pin clk; /**< & */
  89:../../libDaisy/src/per/qspi.h ****             dsy_gpio_pin ncs; /**< & */
  90:../../libDaisy/src/per/qspi.h ****         } pin_config;
  91:../../libDaisy/src/per/qspi.h **** 
  92:../../libDaisy/src/per/qspi.h ****         Device device;
  93:../../libDaisy/src/per/qspi.h ****         Mode   mode;
  94:../../libDaisy/src/per/qspi.h ****     };
  95:../../libDaisy/src/per/qspi.h **** 
  96:../../libDaisy/src/per/qspi.h ****     /** 
  97:../../libDaisy/src/per/qspi.h ****         Initializes QSPI peripheral, and Resets, and prepares memory for access.
  98:../../libDaisy/src/per/qspi.h ****         \param config should be populated with the mode, device and pin_config before calling this 
  99:../../libDaisy/src/per/qspi.h ****         \return Result::OK or Result::ERR
 100:../../libDaisy/src/per/qspi.h ****         */
 101:../../libDaisy/src/per/qspi.h ****     Result Init(const Config& config);
 102:../../libDaisy/src/per/qspi.h **** 
 103:../../libDaisy/src/per/qspi.h ****     /** Returns the current config. */
 104:../../libDaisy/src/per/qspi.h ****     const Config& GetConfig() const;
 105:../../libDaisy/src/per/qspi.h **** 
 106:../../libDaisy/src/per/qspi.h ****     // Couldn't this just be called before anything else in init? That
 107:../../libDaisy/src/per/qspi.h ****     // would make manually calling it unnecessary.
 108:../../libDaisy/src/per/qspi.h ****     /** 
 109:../../libDaisy/src/per/qspi.h ****         Deinitializes the peripheral
 110:../../libDaisy/src/per/qspi.h ****         This should be called before reinitializing QSPI in a different mode.
 111:../../libDaisy/src/per/qspi.h ****         \return Result::OK or Result::ERR
 112:../../libDaisy/src/per/qspi.h ****         */
 113:../../libDaisy/src/per/qspi.h ****     Result DeInit();
 114:../../libDaisy/src/per/qspi.h **** 
 115:../../libDaisy/src/per/qspi.h ****     /** 
 116:../../libDaisy/src/per/qspi.h ****         Writes a single page to to the specified address on the QSPI chip.
 117:../../libDaisy/src/per/qspi.h ****         For IS25LP*, page size is 256 bytes.
 118:../../libDaisy/src/per/qspi.h ****         \param address Address to write to
 119:../../libDaisy/src/per/qspi.h ****         \param size Buffer size
 120:../../libDaisy/src/per/qspi.h ****         \param buffer Buffer to write
 121:../../libDaisy/src/per/qspi.h ****         \return Result::OK or Result::ERR
 122:../../libDaisy/src/per/qspi.h ****         */
 123:../../libDaisy/src/per/qspi.h ****     Result WritePage(uint32_t address, uint32_t size, uint8_t* buffer);
 124:../../libDaisy/src/per/qspi.h **** 
 125:../../libDaisy/src/per/qspi.h ****     /** 
 126:../../libDaisy/src/per/qspi.h ****         Writes data in buffer to to the QSPI. Starting at address to address+size 
 127:../../libDaisy/src/per/qspi.h ****         \param address Address to write to
 128:../../libDaisy/src/per/qspi.h ****         \param size Buffer size
 129:../../libDaisy/src/per/qspi.h ****         \param buffer Buffer to write
 130:../../libDaisy/src/per/qspi.h ****         \return Result::OK or Result::ERR
 131:../../libDaisy/src/per/qspi.h ****         */
ARM GAS  /var/folders/11/xdtqf_dx1yx09tgy7pcbkdzh0000gp/T//cca9poyW.s 			page 21


 132:../../libDaisy/src/per/qspi.h ****     Result Write(uint32_t address, uint32_t size, uint8_t* buffer);
 133:../../libDaisy/src/per/qspi.h **** 
 134:../../libDaisy/src/per/qspi.h ****     /** 
 135:../../libDaisy/src/per/qspi.h ****         Erases the area specified on the chip.
 136:../../libDaisy/src/per/qspi.h ****         Erasures will happen by 4K, 32K or 64K increments.
 137:../../libDaisy/src/per/qspi.h ****         Smallest erase possible is 4kB at a time. (on IS25LP*)
 138:../../libDaisy/src/per/qspi.h ****         \param start_addr Address to begin erasing from
 139:../../libDaisy/src/per/qspi.h ****         \param end_addr  Address to stop erasing at
 140:../../libDaisy/src/per/qspi.h ****         \return Result::OK or Result::ERR
 141:../../libDaisy/src/per/qspi.h ****         */
 142:../../libDaisy/src/per/qspi.h ****     Result Erase(uint32_t start_addr, uint32_t end_addr);
 143:../../libDaisy/src/per/qspi.h **** 
 144:../../libDaisy/src/per/qspi.h ****     /**  
 145:../../libDaisy/src/per/qspi.h ****          Erases a single sector of the chip.  
 146:../../libDaisy/src/per/qspi.h ****         TODO: Document the size of this function. 
 147:../../libDaisy/src/per/qspi.h ****         \param address Address of sector to erase
 148:../../libDaisy/src/per/qspi.h ****         \return Result::OK or Result::ERR
 149:../../libDaisy/src/per/qspi.h ****         */
 150:../../libDaisy/src/per/qspi.h ****     Result EraseSector(uint32_t address);
 151:../../libDaisy/src/per/qspi.h **** 
 152:../../libDaisy/src/per/qspi.h ****     /** Returns the current class status. Useful for debugging.
 153:../../libDaisy/src/per/qspi.h ****      *  \returns Status
 154:../../libDaisy/src/per/qspi.h ****      */
 155:../../libDaisy/src/per/qspi.h ****     Status GetStatus();
 156:../../libDaisy/src/per/qspi.h **** 
 157:../../libDaisy/src/per/qspi.h ****     /** Returns a pointer to the actual memory used 
 158:../../libDaisy/src/per/qspi.h ****      *  The memory at this address is read-only
 159:../../libDaisy/src/per/qspi.h ****      *  to write to it use the Write function.
 160:../../libDaisy/src/per/qspi.h ****      * 
 161:../../libDaisy/src/per/qspi.h ****      *  \param offset returns the pointer starting this 
 162:../../libDaisy/src/per/qspi.h ****      *                many bytes into the memory
 163:../../libDaisy/src/per/qspi.h ****     */
 164:../../libDaisy/src/per/qspi.h ****     void* GetData(uint32_t offset = 0);
 165:../../libDaisy/src/per/qspi.h **** 
 166:../../libDaisy/src/per/qspi.h ****     QSPIHandle() : pimpl_(nullptr) {}
 461              		.loc 7 166 5 view .LVU105
 462              	.LBE94:
 463              	.LBE93:
 464              	.LBE92:
 465              	.LBE91:
 466              	.LBE90:
 467              		.loc 1 140 1 is_stmt 0 view .LVU106
 468 0000 10B4     		push	{r4}
 469              		.cfi_def_cfa_offset 4
 470              		.cfi_offset 4, -4
 471              	.LBB119:
 472              	.LBB117:
 473              	.LBB115:
 474              	.LBB113:
 475              	.LBB99:
 476              	.LBB95:
 477              	.LBB96:
 478              		.loc 7 166 20 view .LVU107
 479 0002 0023     		movs	r3, #0
 480              	.LBE96:
 481              	.LBE95:
 482              	.LBE99:
ARM GAS  /var/folders/11/xdtqf_dx1yx09tgy7pcbkdzh0000gp/T//cca9poyW.s 			page 22


 483              	.LBE113:
 484              	.LBE115:
  21:hearing_aid.cpp **** 
 485              		.loc 1 21 11 discriminator 1 view .LVU108
 486 0004 0548     		ldr	r0, .L44
 487 0006 064A     		ldr	r2, .L44+4
 488 0008 0649     		ldr	r1, .L44+8
 489              	.LBE117:
 490              	.LBE119:
 491              		.loc 1 140 1 view .LVU109
 492 000a 5DF8044B 		ldr	r4, [sp], #4
 493              		.cfi_restore 4
 494              		.cfi_def_cfa_offset 0
 495              	.LBB120:
 496              	.LBB118:
 497              	.LBB116:
 498              	.LBB114:
 499              	.LBB100:
 500              	.LBB98:
 501              	.LBB97:
 502              		.loc 7 166 20 view .LVU110
 503 000e 0360     		str	r3, [r0]
 504              	.LVL25:
 505              		.loc 7 166 20 view .LVU111
 506              	.LBE97:
 507              	.LBE98:
 508              	.LBE100:
 509              	.LBB101:
 510              	.LBI101:
  95:../../libDaisy/src/hid/audio.h ****     ~AudioHandle() {}
 511              		.loc 6 95 5 is_stmt 1 view .LVU112
 512              	.LBB102:
 513              	.LBB103:
  95:../../libDaisy/src/hid/audio.h ****     ~AudioHandle() {}
 514              		.loc 6 95 21 is_stmt 0 view .LVU113
 515 0010 4361     		str	r3, [r0, #20]
 516              	.LVL26:
  95:../../libDaisy/src/hid/audio.h ****     ~AudioHandle() {}
 517              		.loc 6 95 21 view .LVU114
 518              	.LBE103:
 519              	.LBE102:
 520              	.LBE101:
 521              	.LBB104:
 522              	.LBI104:
 109:../../libDaisy/src/per/adc.h ****     ~AdcHandle() {}
 523              		.loc 5 109 5 is_stmt 1 view .LVU115
 109:../../libDaisy/src/per/adc.h ****     ~AdcHandle() {}
 524              		.loc 5 109 5 is_stmt 0 view .LVU116
 525              	.LBE104:
 526              	.LBB105:
 527              	.LBI105:
 528              		.file 8 "../../libDaisy/src/per/dac.h"
   1:../../libDaisy/src/per/dac.h **** #pragma once
   2:../../libDaisy/src/per/dac.h **** #ifndef DSY_DAC_H
   3:../../libDaisy/src/per/dac.h **** #define DSY_DAC_H
   4:../../libDaisy/src/per/dac.h **** 
   5:../../libDaisy/src/per/dac.h **** #include "daisy_core.h"
ARM GAS  /var/folders/11/xdtqf_dx1yx09tgy7pcbkdzh0000gp/T//cca9poyW.s 			page 23


   6:../../libDaisy/src/per/dac.h **** 
   7:../../libDaisy/src/per/dac.h **** namespace daisy
   8:../../libDaisy/src/per/dac.h **** {
   9:../../libDaisy/src/per/dac.h **** /** @brief DAC handle for Built-in DAC Peripheral 
  10:../../libDaisy/src/per/dac.h ****  *  @ingroup per_analog
  11:../../libDaisy/src/per/dac.h ****  ** 
  12:../../libDaisy/src/per/dac.h ****  ** For now only Normal Mode is supported,
  13:../../libDaisy/src/per/dac.h ****  ** Sample and hold mode provides reduced power consumption, but requires a bit more setup.
  14:../../libDaisy/src/per/dac.h ****  **
  15:../../libDaisy/src/per/dac.h ****  ** For now connecting the DAC through other internal peripherals is also not supported.
  16:../../libDaisy/src/per/dac.h ****  **
  17:../../libDaisy/src/per/dac.h ****  ** Since the DAC channels have dedicated pins we don't need to pass in a pin config like with
  18:../../libDaisy/src/per/dac.h ****  ** other modules. However, it is still important to not try to use the DAC pins for anything else.
  19:../../libDaisy/src/per/dac.h ****  ** DAC Channel 1 is on PA4, and DAC Channel 2 is on PA5
  20:../../libDaisy/src/per/dac.h ****  ***/
  21:../../libDaisy/src/per/dac.h **** class DacHandle
  22:../../libDaisy/src/per/dac.h **** {
  23:../../libDaisy/src/per/dac.h ****   public:
  24:../../libDaisy/src/per/dac.h ****     /** Return Values for the DacHandle class */
  25:../../libDaisy/src/per/dac.h ****     enum class Result
  26:../../libDaisy/src/per/dac.h ****     {
  27:../../libDaisy/src/per/dac.h ****         OK,
  28:../../libDaisy/src/per/dac.h ****         ERR,
  29:../../libDaisy/src/per/dac.h ****     };
  30:../../libDaisy/src/per/dac.h **** 
  31:../../libDaisy/src/per/dac.h ****     /** Selects which channel(s) will be configured for use. */
  32:../../libDaisy/src/per/dac.h ****     enum class Channel
  33:../../libDaisy/src/per/dac.h ****     {
  34:../../libDaisy/src/per/dac.h ****         ONE,
  35:../../libDaisy/src/per/dac.h ****         TWO,
  36:../../libDaisy/src/per/dac.h ****         BOTH,
  37:../../libDaisy/src/per/dac.h ****     };
  38:../../libDaisy/src/per/dac.h **** 
  39:../../libDaisy/src/per/dac.h ****     /** Sets the Mode for the DAC channels.
  40:../../libDaisy/src/per/dac.h ****      **
  41:../../libDaisy/src/per/dac.h ****      ** Polling mode uses the blocking mode to transmit a single value at a time.
  42:../../libDaisy/src/per/dac.h ****      **
  43:../../libDaisy/src/per/dac.h ****      ** DMA mode uses a buffer, and periodically transmits it triggering a 
  44:../../libDaisy/src/per/dac.h ****      ** callback to fill the buffer when it is ready for more samples.
  45:../../libDaisy/src/per/dac.h ****      ***/
  46:../../libDaisy/src/per/dac.h ****     enum class Mode
  47:../../libDaisy/src/per/dac.h ****     {
  48:../../libDaisy/src/per/dac.h ****         POLLING,
  49:../../libDaisy/src/per/dac.h ****         DMA,
  50:../../libDaisy/src/per/dac.h ****     };
  51:../../libDaisy/src/per/dac.h **** 
  52:../../libDaisy/src/per/dac.h ****     /** Sets the number of bits per sample transmitted out of the DAC.
  53:../../libDaisy/src/per/dac.h ****      ** The output range will be: 0V - VDDA
  54:../../libDaisy/src/per/dac.h ****      ** The resolution will be roughly: bitdepth / (VDDA - 0V) 
  55:../../libDaisy/src/per/dac.h ****      ***/
  56:../../libDaisy/src/per/dac.h ****     enum class BitDepth
  57:../../libDaisy/src/per/dac.h ****     {
  58:../../libDaisy/src/per/dac.h ****         BITS_8,
  59:../../libDaisy/src/per/dac.h ****         BITS_12
  60:../../libDaisy/src/per/dac.h ****     };
  61:../../libDaisy/src/per/dac.h **** 
  62:../../libDaisy/src/per/dac.h ****     /** Sets whether the DAC output is buffered for higher drive ability. */
ARM GAS  /var/folders/11/xdtqf_dx1yx09tgy7pcbkdzh0000gp/T//cca9poyW.s 			page 24


  63:../../libDaisy/src/per/dac.h ****     enum class BufferState
  64:../../libDaisy/src/per/dac.h ****     {
  65:../../libDaisy/src/per/dac.h ****         ENABLED,
  66:../../libDaisy/src/per/dac.h ****         DISABLED,
  67:../../libDaisy/src/per/dac.h ****     };
  68:../../libDaisy/src/per/dac.h **** 
  69:../../libDaisy/src/per/dac.h ****     /** Configuration structure for initializing the DAC structure. */
  70:../../libDaisy/src/per/dac.h ****     struct Config
  71:../../libDaisy/src/per/dac.h ****     {
  72:../../libDaisy/src/per/dac.h ****         /** Target Samplerate in Hz used to configure the internal 
  73:../../libDaisy/src/per/dac.h ****          ** timebase for DMA mode. Does nothing in POLLING mode.
  74:../../libDaisy/src/per/dac.h ****          ** If the value is 0 at Init time this will default to 48000Hz 
  75:../../libDaisy/src/per/dac.h ****          ** otherwise the driver will attempt meet the target.*/
  76:../../libDaisy/src/per/dac.h ****         uint32_t target_samplerate;
  77:../../libDaisy/src/per/dac.h **** 
  78:../../libDaisy/src/per/dac.h ****         Channel     chn;
  79:../../libDaisy/src/per/dac.h ****         Mode        mode;
  80:../../libDaisy/src/per/dac.h ****         BitDepth    bitdepth;
  81:../../libDaisy/src/per/dac.h ****         BufferState buff_state;
  82:../../libDaisy/src/per/dac.h ****     };
  83:../../libDaisy/src/per/dac.h **** 
  84:../../libDaisy/src/per/dac.h ****     DacHandle() : pimpl_(nullptr) {}
 529              		.loc 8 84 5 is_stmt 1 view .LVU117
 530              	.LBB106:
 531              	.LBB107:
 532              		.loc 8 84 19 is_stmt 0 view .LVU118
 533 0012 0362     		str	r3, [r0, #32]
 534              	.LVL27:
 535              		.loc 8 84 19 view .LVU119
 536              	.LBE107:
 537              	.LBE106:
 538              	.LBE105:
 539              	.LBB108:
 540              	.LBI108:
  40:../../libDaisy/src/hid/usb.h **** 
 541              		.loc 4 40 5 is_stmt 1 view .LVU120
  40:../../libDaisy/src/hid/usb.h **** 
 542              		.loc 4 40 5 is_stmt 0 view .LVU121
 543              	.LBE108:
 544              	.LBB109:
 545              	.LBI109:
  96:../../libDaisy/src/sys/system.h ****     ~System() {}
 546              		.loc 3 96 5 is_stmt 1 view .LVU122
  96:../../libDaisy/src/sys/system.h ****     ~System() {}
 547              		.loc 3 96 5 is_stmt 0 view .LVU123
 548              	.LBE109:
 549              	.LBB110:
 550              	.LBI110:
 551              		.file 9 "../../libDaisy/src/per/sai.h"
   1:../../libDaisy/src/per/sai.h **** #pragma once
   2:../../libDaisy/src/per/sai.h **** #ifndef DSY_SAI_H
   3:../../libDaisy/src/per/sai.h **** #define DSY_SAI_H
   4:../../libDaisy/src/per/sai.h **** 
   5:../../libDaisy/src/per/sai.h **** #include "daisy_core.h"
   6:../../libDaisy/src/per/sai.h **** 
   7:../../libDaisy/src/per/sai.h **** namespace daisy
   8:../../libDaisy/src/per/sai.h **** {
ARM GAS  /var/folders/11/xdtqf_dx1yx09tgy7pcbkdzh0000gp/T//cca9poyW.s 			page 25


   9:../../libDaisy/src/per/sai.h **** /** 
  10:../../libDaisy/src/per/sai.h ****  * Support for I2S Audio Protocol with different bit-depth, samplerate options
  11:../../libDaisy/src/per/sai.h ****  * Allows for master or slave, as well as freedom of selecting direction, 
  12:../../libDaisy/src/per/sai.h ****  * and other behavior for each peripheral, and block.
  13:../../libDaisy/src/per/sai.h ****  * 
  14:../../libDaisy/src/per/sai.h ****  * DMA Transfer commands must use buffers located within non-cached memory or use cache maintenance
  15:../../libDaisy/src/per/sai.h ****  * To declare an unitialized global element in the DMA memory section:
  16:../../libDaisy/src/per/sai.h ****  *    int32_t DSY_DMA_BUFFER_SECTOR my_buffer[96];
  17:../../libDaisy/src/per/sai.h ****  *
  18:../../libDaisy/src/per/sai.h ****  * Callback functions will be called once per half of the buffer. In the above example, 
  19:../../libDaisy/src/per/sai.h ****  * the callback function would be called once for every 48 samples.
  20:../../libDaisy/src/per/sai.h ****  * 
  21:../../libDaisy/src/per/sai.h ****  * Use SAI Handle like this:
  22:../../libDaisy/src/per/sai.h ****  * 
  23:../../libDaisy/src/per/sai.h ****  *  SaiHandle::Config sai_config;
  24:../../libDaisy/src/per/sai.h ****  *  sai_config.periph          = SaiHandle::Config::Peripheral::SAI_1;
  25:../../libDaisy/src/per/sai.h ****  *  sai_config.sr              = SaiHandle::Config::SampleRate::SAI_48KHZ;
  26:../../libDaisy/src/per/sai.h ****  *  sai_config.bit_depth       = SaiHandle::Config::BitDepth::SAI_24BIT;
  27:../../libDaisy/src/per/sai.h ****  *  sai_config.a_sync          = SaiHandle::Config::Sync::MASTER;
  28:../../libDaisy/src/per/sai.h ****  *  sai_config.b_sync          = SaiHandle::Config::Sync::SLAVE;
  29:../../libDaisy/src/per/sai.h ****  *  sai_config.a_dir           = SaiHandle::Config::Direction::RECEIVE;
  30:../../libDaisy/src/per/sai.h ****  *  sai_config.b_dir           = SaiHandle::Config::Direction::TRANSMIT;
  31:../../libDaisy/src/per/sai.h ****  *  sai_config.pin_config.fs   = {DSY_GPIOE, 4};
  32:../../libDaisy/src/per/sai.h ****  *  sai_config.pin_config.mclk = {DSY_GPIOE, 2};
  33:../../libDaisy/src/per/sai.h ****  *  sai_config.pin_config.sck  = {DSY_GPIOE, 5};
  34:../../libDaisy/src/per/sai.h ****  *  sai_config.pin_config.sa   = {DSY_GPIOE, 6};
  35:../../libDaisy/src/per/sai.h ****  *  sai_config.pin_config.sb   = {DSY_GPIOE, 3};
  36:../../libDaisy/src/per/sai.h ****  *  // Then Initialize
  37:../../libDaisy/src/per/sai.h ****  *  SaiHandle sai;
  38:../../libDaisy/src/per/sai.h ****  *  sai.Init(sai_config);
  39:../../libDaisy/src/per/sai.h ****  *  // Now you can use it:
  40:../../libDaisy/src/per/sai.h ****  *  sai.StartDma(. . .);
  41:../../libDaisy/src/per/sai.h ****  */
  42:../../libDaisy/src/per/sai.h **** class SaiHandle
  43:../../libDaisy/src/per/sai.h **** {
  44:../../libDaisy/src/per/sai.h ****   public:
  45:../../libDaisy/src/per/sai.h ****     /** Contains settings for initialising an SAI Interface */
  46:../../libDaisy/src/per/sai.h ****     struct Config
  47:../../libDaisy/src/per/sai.h ****     {
  48:../../libDaisy/src/per/sai.h ****         /** Specifies the internal peripheral to use (mapped to different hardware pins) */
  49:../../libDaisy/src/per/sai.h ****         enum class Peripheral
  50:../../libDaisy/src/per/sai.h ****         {
  51:../../libDaisy/src/per/sai.h ****             SAI_1,
  52:../../libDaisy/src/per/sai.h ****             SAI_2,
  53:../../libDaisy/src/per/sai.h ****         };
  54:../../libDaisy/src/per/sai.h **** 
  55:../../libDaisy/src/per/sai.h ****         /** Rate at which samples will be streaming to/from the device. */
  56:../../libDaisy/src/per/sai.h ****         enum class SampleRate
  57:../../libDaisy/src/per/sai.h ****         {
  58:../../libDaisy/src/per/sai.h ****             SAI_8KHZ,
  59:../../libDaisy/src/per/sai.h ****             SAI_16KHZ,
  60:../../libDaisy/src/per/sai.h ****             SAI_32KHZ,
  61:../../libDaisy/src/per/sai.h ****             SAI_48KHZ,
  62:../../libDaisy/src/per/sai.h ****             SAI_96KHZ,
  63:../../libDaisy/src/per/sai.h ****         };
  64:../../libDaisy/src/per/sai.h **** 
  65:../../libDaisy/src/per/sai.h ****         /** Bit Depth that the hardware expects to be transferred to/from the device. */
ARM GAS  /var/folders/11/xdtqf_dx1yx09tgy7pcbkdzh0000gp/T//cca9poyW.s 			page 26


  66:../../libDaisy/src/per/sai.h ****         enum class BitDepth
  67:../../libDaisy/src/per/sai.h ****         {
  68:../../libDaisy/src/per/sai.h ****             SAI_16BIT,
  69:../../libDaisy/src/per/sai.h ****             SAI_24BIT,
  70:../../libDaisy/src/per/sai.h ****             SAI_32BIT,
  71:../../libDaisy/src/per/sai.h ****         };
  72:../../libDaisy/src/per/sai.h **** 
  73:../../libDaisy/src/per/sai.h ****         /** Specifies whether a particular block is the master or the slave 
  74:../../libDaisy/src/per/sai.h ****          ** If both are set to slave, no MCLK signal will be used, and it is
  75:../../libDaisy/src/per/sai.h ****          ** expected that the codec will have its own xtal.
  76:../../libDaisy/src/per/sai.h ****          */
  77:../../libDaisy/src/per/sai.h ****         enum class Sync
  78:../../libDaisy/src/per/sai.h ****         {
  79:../../libDaisy/src/per/sai.h ****             MASTER,
  80:../../libDaisy/src/per/sai.h ****             SLAVE,
  81:../../libDaisy/src/per/sai.h ****         };
  82:../../libDaisy/src/per/sai.h **** 
  83:../../libDaisy/src/per/sai.h ****         /** Specifies the direction for each peripheral block. */
  84:../../libDaisy/src/per/sai.h ****         enum class Direction
  85:../../libDaisy/src/per/sai.h ****         {
  86:../../libDaisy/src/per/sai.h ****             TRANSMIT,
  87:../../libDaisy/src/per/sai.h ****             RECEIVE,
  88:../../libDaisy/src/per/sai.h ****         };
  89:../../libDaisy/src/per/sai.h **** 
  90:../../libDaisy/src/per/sai.h ****         Peripheral periph;
  91:../../libDaisy/src/per/sai.h ****         struct
  92:../../libDaisy/src/per/sai.h ****         {
  93:../../libDaisy/src/per/sai.h ****             dsy_gpio_pin mclk, fs, sck, sa, sb;
  94:../../libDaisy/src/per/sai.h ****         } pin_config;
  95:../../libDaisy/src/per/sai.h ****         SampleRate sr;
  96:../../libDaisy/src/per/sai.h ****         BitDepth   bit_depth;
  97:../../libDaisy/src/per/sai.h ****         Sync       a_sync, b_sync;
  98:../../libDaisy/src/per/sai.h ****         Direction  a_dir, b_dir;
  99:../../libDaisy/src/per/sai.h ****     };
 100:../../libDaisy/src/per/sai.h **** 
 101:../../libDaisy/src/per/sai.h ****     /** Return values for SAI functions */
 102:../../libDaisy/src/per/sai.h ****     enum class Result
 103:../../libDaisy/src/per/sai.h ****     {
 104:../../libDaisy/src/per/sai.h ****         OK,
 105:../../libDaisy/src/per/sai.h ****         ERR,
 106:../../libDaisy/src/per/sai.h ****     };
 107:../../libDaisy/src/per/sai.h **** 
 108:../../libDaisy/src/per/sai.h ****     SaiHandle() : pimpl_(nullptr) {}
 552              		.loc 9 108 5 is_stmt 1 view .LVU124
 553              	.LBB111:
 554              	.LBB112:
 555              		.loc 9 108 19 is_stmt 0 view .LVU125
 556 0014 C363     		str	r3, [r0, #60]
 557              	.LVL28:
 558              		.loc 9 108 19 view .LVU126
 559              	.LBE112:
 560              	.LBE111:
 561              	.LBE110:
 562              	.LBE114:
 563              	.LBE116:
  21:hearing_aid.cpp **** 
 564              		.loc 1 21 11 discriminator 1 view .LVU127
ARM GAS  /var/folders/11/xdtqf_dx1yx09tgy7pcbkdzh0000gp/T//cca9poyW.s 			page 27


 565 0016 FFF7FEBF 		b	__aeabi_atexit
 566              	.LVL29:
 567              	.L45:
 568 001a 00BF     		.align	2
 569              	.L44:
 570 001c 00000000 		.word	hw
 571 0020 00000000 		.word	__dso_handle
 572 0024 00000000 		.word	_ZN5daisy9DaisySeedD1Ev
 573              	.LBE118:
 574              	.LBE120:
 575              		.cfi_endproc
 576              	.LFE5368:
 578              		.section	.init_array,"aw",%init_array
 579              		.align	2
 580 0000 00000000 		.word	_GLOBAL__sub_I_band_gains(target1)
 581              		.global	fir_coeffs
 582              		.section	.data.fir_coeffs,"aw"
 583              		.align	2
 586              	fir_coeffs:
 587 0000 33844639 		.word	960922675
 588 0004 310E6C39 		.word	963382833
 589 0008 1FFD8A39 		.word	965410079
 590 000c 1BE4A239 		.word	966976539
 591 0010 4D79BE39 		.word	968784205
 592 0014 ED75DE39 		.word	970880493
 593 0018 E7C4013A 		.word	973194471
 594 001c 0D33173A 		.word	974598925
 595 0020 F1D52F3A 		.word	976213489
 596 0024 C3FC4B3A 		.word	978058435
 597 0028 A9F06B3A 		.word	980152489
 598 002c B6FA873A 		.word	981990070
 599 0030 63249C3A 		.word	983311459
 600 0034 3791B23A 		.word	984781111
 601 0038 B059CB3A 		.word	986405296
 602 003c 9C92E63A 		.word	988189340
 603 0040 B626023B 		.word	989996726
 604 0044 C74B123B 		.word	991054791
 605 0048 09BD233B 		.word	992197897
 606 004c 2A7D363B 		.word	993426730
 607 0050 D78C4A3B 		.word	994741463
 608 0054 8CEA5F3B 		.word	996141708
 609 0058 9992763B 		.word	997626521
 610 005c 8F3F873B 		.word	998719375
 611 0060 33D4933B 		.word	999543859
 612 0064 4402A13B 		.word	1000407620
 613 0068 8DC3AE3B 		.word	1001309069
 614 006c 2D11BD3B 		.word	1002246445
 615 0070 18E3CB3B 		.word	1003217688
 616 0074 6830DB3B 		.word	1004220520
 617 0078 22EFEA3B 		.word	1005252386
 618 007c 9E14FB3B 		.word	1006310558
 619 0080 A5CA053C 		.word	1007012517
 620 0084 68320E3C 		.word	1007563368
 621 0088 23BB163C 		.word	1008122659
 622 008c FF5D1F3C 		.word	1008688639
 623 0090 DB13283C 		.word	1009259483
 624 0094 6BD5303C 		.word	1009833323
ARM GAS  /var/folders/11/xdtqf_dx1yx09tgy7pcbkdzh0000gp/T//cca9poyW.s 			page 28


 625 0098 019B393C 		.word	1010408193
 626 009c FD5C423C 		.word	1010982141
 627 00a0 64134B3C 		.word	1011553124
 628 00a4 4BB6533C 		.word	1012119115
 629 00a8 A33D5C3C 		.word	1012678051
 630 00ac 60A1643C 		.word	1013227872
 631 00b0 7DD96C3C 		.word	1013766525
 632 00b4 0EDE743C 		.word	1014291982
 633 00b8 3BA77C3C 		.word	1014802235
 634 00bc A116823C 		.word	1015158433
 635 00c0 5FB4853C 		.word	1015395423
 636 00c4 2F29893C 		.word	1015621935
 637 00c8 8E718C3C 		.word	1015837070
 638 00cc 2C8A8F3C 		.word	1016039980
 639 00d0 DA6F923C 		.word	1016229850
 640 00d4 971F953C 		.word	1016405911
 641 00d8 A096973C 		.word	1016567456
 642 00dc 64D2993C 		.word	1016713828
 643 00e0 8BD09B3C 		.word	1016844427
 644 00e4 028F9D3C 		.word	1016958722
 645 00e8 F40B9F3C 		.word	1017056244
 646 00ec CB45A03C 		.word	1017136587
 647 00f0 3E3BA13C 		.word	1017199422
 648 00f4 4DEBA13C 		.word	1017244493
 649 00f8 3A55A23C 		.word	1017271610
 650 00fc 9678A23C 		.word	1017280662
 651 0100 3A55A23C 		.word	1017271610
 652 0104 4DEBA13C 		.word	1017244493
 653 0108 3E3BA13C 		.word	1017199422
 654 010c CB45A03C 		.word	1017136587
 655 0110 F40B9F3C 		.word	1017056244
 656 0114 028F9D3C 		.word	1016958722
 657 0118 8BD09B3C 		.word	1016844427
 658 011c 64D2993C 		.word	1016713828
 659 0120 A096973C 		.word	1016567456
 660 0124 971F953C 		.word	1016405911
 661 0128 DA6F923C 		.word	1016229850
 662 012c 2C8A8F3C 		.word	1016039980
 663 0130 8E718C3C 		.word	1015837070
 664 0134 2F29893C 		.word	1015621935
 665 0138 5FB4853C 		.word	1015395423
 666 013c A116823C 		.word	1015158433
 667 0140 3BA77C3C 		.word	1014802235
 668 0144 0EDE743C 		.word	1014291982
 669 0148 7DD96C3C 		.word	1013766525
 670 014c 60A1643C 		.word	1013227872
 671 0150 A33D5C3C 		.word	1012678051
 672 0154 4BB6533C 		.word	1012119115
 673 0158 64134B3C 		.word	1011553124
 674 015c FD5C423C 		.word	1010982141
 675 0160 019B393C 		.word	1010408193
 676 0164 6BD5303C 		.word	1009833323
 677 0168 DB13283C 		.word	1009259483
 678 016c FF5D1F3C 		.word	1008688639
 679 0170 23BB163C 		.word	1008122659
 680 0174 68320E3C 		.word	1007563368
 681 0178 A5CA053C 		.word	1007012517
ARM GAS  /var/folders/11/xdtqf_dx1yx09tgy7pcbkdzh0000gp/T//cca9poyW.s 			page 29


 682 017c 9E14FB3B 		.word	1006310558
 683 0180 22EFEA3B 		.word	1005252386
 684 0184 6830DB3B 		.word	1004220520
 685 0188 18E3CB3B 		.word	1003217688
 686 018c 2D11BD3B 		.word	1002246445
 687 0190 8DC3AE3B 		.word	1001309069
 688 0194 4402A13B 		.word	1000407620
 689 0198 33D4933B 		.word	999543859
 690 019c 8F3F873B 		.word	998719375
 691 01a0 9992763B 		.word	997626521
 692 01a4 8CEA5F3B 		.word	996141708
 693 01a8 D78C4A3B 		.word	994741463
 694 01ac 2A7D363B 		.word	993426730
 695 01b0 09BD233B 		.word	992197897
 696 01b4 C74B123B 		.word	991054791
 697 01b8 B626023B 		.word	989996726
 698 01bc 9C92E63A 		.word	988189340
 699 01c0 B059CB3A 		.word	986405296
 700 01c4 3791B23A 		.word	984781111
 701 01c8 63249C3A 		.word	983311459
 702 01cc B6FA873A 		.word	981990070
 703 01d0 A9F06B3A 		.word	980152489
 704 01d4 C3FC4B3A 		.word	978058435
 705 01d8 F1D52F3A 		.word	976213489
 706 01dc 0D33173A 		.word	974598925
 707 01e0 E7C4013A 		.word	973194471
 708 01e4 ED75DE39 		.word	970880493
 709 01e8 4D79BE39 		.word	968784205
 710 01ec 1BE4A239 		.word	966976539
 711 01f0 1FFD8A39 		.word	965410079
 712 01f4 310E6C39 		.word	963382833
 713 01f8 33844639 		.word	960922675
 714 01fc 500302BB 		.word	-1157495984
 715 0200 694103BB 		.word	-1157414551
 716 0204 EB0606BB 		.word	-1157232917
 717 0208 484B0ABB 		.word	-1156953272
 718 020c E4FD0FBB 		.word	-1156579868
 719 0210 960517BB 		.word	-1156119146
 720 0214 A4411FBB 		.word	-1155579484
 721 0218 CB8828BB 		.word	-1154971445
 722 021c B8AA32BB 		.word	-1154307400
 723 0220 E36F3DBB 		.word	-1153601565
 724 0224 639A48BB 		.word	-1152869789
 725 0228 72E653BB 		.word	-1152129422
 726 022c 130B5FBB 		.word	-1151399149
 727 0230 EFBA69BB 		.word	-1150698769
 728 0234 54A573BB 		.word	-1150048940
 729 0238 DF767CBB 		.word	-1149471009
 730 023c 40ED81BB 		.word	-1149113024
 731 0240 3FBD84BB 		.word	-1148928705
 732 0244 F98086BB 		.word	-1148813063
 733 0248 7D0E87BB 		.word	-1148776835
 734 024c 1B3D86BB 		.word	-1148830437
 735 0250 E9E583BB 		.word	-1148983831
 736 0254 F9C87FBB 		.word	-1149253383
 737 0258 BA2D74BB 		.word	-1150014022
 738 025c 04BD64BB 		.word	-1151025916
ARM GAS  /var/folders/11/xdtqf_dx1yx09tgy7pcbkdzh0000gp/T//cca9poyW.s 			page 30


 739 0260 D04051BB 		.word	-1152302896
 740 0264 A78B39BB 		.word	-1153856601
 741 0268 A1781DBB 		.word	-1155696479
 742 026c 75D9F9BA 		.word	-1158030987
 743 0270 03AEAFBA 		.word	-1162891773
 744 0274 03C538BA 		.word	-1170684669
 745 0278 00000000 		.word	0
 746 027c 96B24A3A 		.word	977973910
 747 0280 0473D33A 		.word	986936068
 748 0284 53FF243B 		.word	992280403
 749 0288 1A4C643B 		.word	996428826
 750 028c 4DB1933B 		.word	999534925
 751 0290 42FDB63B 		.word	1001848130
 752 0294 A6E0DB3B 		.word	1004265638
 753 0298 AB16013C 		.word	1006704299
 754 029c 4AD8143C 		.word	1007999050
 755 02a0 B519293C 		.word	1009326517
 756 02a4 A6BD3D3C 		.word	1010679206
 757 02a8 13A5523C 		.word	1012049171
 758 02ac BDAF673C 		.word	1013428157
 759 02b0 13BC7C3C 		.word	1014807571
 760 02b4 F4D3883C 		.word	1015600116
 761 02b8 3628933C 		.word	1016277046
 762 02bc 52499D3C 		.word	1016940882
 763 02c0 D425A73C 		.word	1017587156
 764 02c4 86ACB03C 		.word	1018211462
 765 02c8 85CCB93C 		.word	1018809477
 766 02cc 7B75C23C 		.word	1019377019
 767 02d0 BE97CA3C 		.word	1019910078
 768 02d4 7524D23C 		.word	1020404853
 769 02d8 B80DD93C 		.word	1020857784
 770 02dc B746DF3C 		.word	1021265591
 771 02e0 DAC3E43C 		.word	1021625306
 772 02e4 D37AE93C 		.word	1021934291
 773 02e8 C462ED3C 		.word	1022190276
 774 02ec 4774F03C 		.word	1022391367
 775 02f0 90A9F23C 		.word	1022536080
 776 02f4 6AFEF33C 		.word	1022623338
 777 02f8 5570F43C 		.word	1022652501
 778 02fc 6AFEF33C 		.word	1022623338
 779 0300 90A9F23C 		.word	1022536080
 780 0304 4774F03C 		.word	1022391367
 781 0308 C462ED3C 		.word	1022190276
 782 030c D37AE93C 		.word	1021934291
 783 0310 DAC3E43C 		.word	1021625306
 784 0314 B746DF3C 		.word	1021265591
 785 0318 B80DD93C 		.word	1020857784
 786 031c 7524D23C 		.word	1020404853
 787 0320 BE97CA3C 		.word	1019910078
 788 0324 7B75C23C 		.word	1019377019
 789 0328 85CCB93C 		.word	1018809477
 790 032c 86ACB03C 		.word	1018211462
 791 0330 D425A73C 		.word	1017587156
 792 0334 52499D3C 		.word	1016940882
 793 0338 3628933C 		.word	1016277046
 794 033c F4D3883C 		.word	1015600116
 795 0340 13BC7C3C 		.word	1014807571
ARM GAS  /var/folders/11/xdtqf_dx1yx09tgy7pcbkdzh0000gp/T//cca9poyW.s 			page 31


 796 0344 BDAF673C 		.word	1013428157
 797 0348 13A5523C 		.word	1012049171
 798 034c A6BD3D3C 		.word	1010679206
 799 0350 B519293C 		.word	1009326517
 800 0354 4AD8143C 		.word	1007999050
 801 0358 AB16013C 		.word	1006704299
 802 035c A6E0DB3B 		.word	1004265638
 803 0360 42FDB63B 		.word	1001848130
 804 0364 4DB1933B 		.word	999534925
 805 0368 1A4C643B 		.word	996428826
 806 036c 53FF243B 		.word	992280403
 807 0370 0473D33A 		.word	986936068
 808 0374 96B24A3A 		.word	977973910
 809 0378 00000000 		.word	0
 810 037c 03C538BA 		.word	-1170684669
 811 0380 03AEAFBA 		.word	-1162891773
 812 0384 75D9F9BA 		.word	-1158030987
 813 0388 A1781DBB 		.word	-1155696479
 814 038c A78B39BB 		.word	-1153856601
 815 0390 D04051BB 		.word	-1152302896
 816 0394 04BD64BB 		.word	-1151025916
 817 0398 BA2D74BB 		.word	-1150014022
 818 039c F9C87FBB 		.word	-1149253383
 819 03a0 E9E583BB 		.word	-1148983831
 820 03a4 1B3D86BB 		.word	-1148830437
 821 03a8 7D0E87BB 		.word	-1148776835
 822 03ac F98086BB 		.word	-1148813063
 823 03b0 3FBD84BB 		.word	-1148928705
 824 03b4 40ED81BB 		.word	-1149113024
 825 03b8 DF767CBB 		.word	-1149471009
 826 03bc 54A573BB 		.word	-1150048940
 827 03c0 EFBA69BB 		.word	-1150698769
 828 03c4 130B5FBB 		.word	-1151399149
 829 03c8 72E653BB 		.word	-1152129422
 830 03cc 639A48BB 		.word	-1152869789
 831 03d0 E36F3DBB 		.word	-1153601565
 832 03d4 B8AA32BB 		.word	-1154307400
 833 03d8 CB8828BB 		.word	-1154971445
 834 03dc A4411FBB 		.word	-1155579484
 835 03e0 960517BB 		.word	-1156119146
 836 03e4 E4FD0FBB 		.word	-1156579868
 837 03e8 484B0ABB 		.word	-1156953272
 838 03ec EB0606BB 		.word	-1157232917
 839 03f0 694103BB 		.word	-1157414551
 840 03f4 500302BB 		.word	-1157495984
 841 03f8 B271923A 		.word	982675890
 842 03fc B534963A 		.word	982922421
 843 0400 9E7F9A3A 		.word	983203742
 844 0404 1F259F3A 		.word	983508255
 845 0408 03D3A33A 		.word	983814915
 846 040c D711A83A 		.word	984093143
 847 0410 E844AB3A 		.word	984302824
 848 0414 44ABAC3A 		.word	984394564
 849 0418 7465AB3A 		.word	984311156
 850 041c D078A63A 		.word	983988432
 851 0420 3CD79C3A 		.word	983357244
 852 0424 30668D3A 		.word	982345264
ARM GAS  /var/folders/11/xdtqf_dx1yx09tgy7pcbkdzh0000gp/T//cca9poyW.s 			page 32


 853 0428 42126E3A 		.word	980292162
 854 042c 7A56313A 		.word	976311930
 855 0430 3C27C539 		.word	969221948
 856 0434 00000080 		.word	-2147483648
 857 0438 08B7EFB9 		.word	-1175472376
 858 043c B00683BA 		.word	-1165818192
 859 0440 9D94D5BA 		.word	-1160407907
 860 0444 44CC19BB 		.word	-1155937212
 861 0448 A4624EBB 		.word	-1152490844
 862 044c C71D84BB 		.word	-1148969529
 863 0450 2B6CA3BB 		.word	-1146917845
 864 0454 43C6C4BB 		.word	-1144732093
 865 0458 17BFE7BB 		.word	-1142440169
 866 045c A4E905BC 		.word	-1140463196
 867 0460 963518BC 		.word	-1139264106
 868 0464 1D6E2ABC 		.word	-1138069987
 869 0468 E6353CBC 		.word	-1136904730
 870 046c 49294DBC 		.word	-1135793847
 871 0470 36E05CBC 		.word	-1134763978
 872 0474 03F06ABC 		.word	-1133842429
 873 0478 1EEE76BC 		.word	-1133056482
 874 047c 163980BC 		.word	-1132447466
 875 0480 528C83BC 		.word	-1132229550
 876 0484 A54285BC 		.word	-1132117339
 877 0488 E53285BC 		.word	-1132121371
 878 048c EC3983BC 		.word	-1132250644
 879 0490 7F777EBC 		.word	-1132562561
 880 0494 1E4972BC 		.word	-1133360866
 881 0498 04D361BC 		.word	-1134439676
 882 049c B8124DBC 		.word	-1135799624
 883 04a0 F81934BC 		.word	-1137436168
 884 04a4 510F17BC 		.word	-1139339439
 885 04a8 F45BECBB 		.word	-1142137868
 886 04ac 608BA3BB 		.word	-1146909856
 887 04b0 6AE728BB 		.word	-1154947222
 888 04b4 00000000 		.word	0
 889 04b8 4A86313B 		.word	993101386
 890 04bc 70ACB43B 		.word	1001696368
 891 04c0 363D093C 		.word	1007238454
 892 04c4 C36C383C 		.word	1010330819
 893 04c8 F834673C 		.word	1013396728
 894 04cc 89718A3C 		.word	1015705993
 895 04d0 6662A03C 		.word	1017143910
 896 04d4 FC15B53C 		.word	1018500604
 897 04d8 CE38C83C 		.word	1019754702
 898 04dc C97CD93C 		.word	1020886217
 899 04e0 AE9AE83C 		.word	1021876910
 900 04e4 9A53F53C 		.word	1022710682
 901 04e8 3172FF3C 		.word	1023373873
 902 04ec EE65033D 		.word	1023632878
 903 04f0 BEA0053D 		.word	1023779006
 904 04f4 1160063D 		.word	1023827985
 905 04f8 BEA0053D 		.word	1023779006
 906 04fc EE65033D 		.word	1023632878
 907 0500 3172FF3C 		.word	1023373873
 908 0504 9A53F53C 		.word	1022710682
 909 0508 AE9AE83C 		.word	1021876910
ARM GAS  /var/folders/11/xdtqf_dx1yx09tgy7pcbkdzh0000gp/T//cca9poyW.s 			page 33


 910 050c C97CD93C 		.word	1020886217
 911 0510 CE38C83C 		.word	1019754702
 912 0514 FC15B53C 		.word	1018500604
 913 0518 6662A03C 		.word	1017143910
 914 051c 89718A3C 		.word	1015705993
 915 0520 F834673C 		.word	1013396728
 916 0524 C36C383C 		.word	1010330819
 917 0528 363D093C 		.word	1007238454
 918 052c 70ACB43B 		.word	1001696368
 919 0530 4A86313B 		.word	993101386
 920 0534 00000000 		.word	0
 921 0538 6AE728BB 		.word	-1154947222
 922 053c 608BA3BB 		.word	-1146909856
 923 0540 F45BECBB 		.word	-1142137868
 924 0544 510F17BC 		.word	-1139339439
 925 0548 F81934BC 		.word	-1137436168
 926 054c B8124DBC 		.word	-1135799624
 927 0550 04D361BC 		.word	-1134439676
 928 0554 1E4972BC 		.word	-1133360866
 929 0558 7F777EBC 		.word	-1132562561
 930 055c EC3983BC 		.word	-1132250644
 931 0560 E53285BC 		.word	-1132121371
 932 0564 A54285BC 		.word	-1132117339
 933 0568 528C83BC 		.word	-1132229550
 934 056c 163980BC 		.word	-1132447466
 935 0570 1EEE76BC 		.word	-1133056482
 936 0574 03F06ABC 		.word	-1133842429
 937 0578 36E05CBC 		.word	-1134763978
 938 057c 49294DBC 		.word	-1135793847
 939 0580 E6353CBC 		.word	-1136904730
 940 0584 1D6E2ABC 		.word	-1138069987
 941 0588 963518BC 		.word	-1139264106
 942 058c A4E905BC 		.word	-1140463196
 943 0590 17BFE7BB 		.word	-1142440169
 944 0594 43C6C4BB 		.word	-1144732093
 945 0598 2B6CA3BB 		.word	-1146917845
 946 059c C71D84BB 		.word	-1148969529
 947 05a0 A4624EBB 		.word	-1152490844
 948 05a4 44CC19BB 		.word	-1155937212
 949 05a8 9D94D5BA 		.word	-1160407907
 950 05ac B00683BA 		.word	-1165818192
 951 05b0 08B7EFB9 		.word	-1175472376
 952 05b4 00000080 		.word	-2147483648
 953 05b8 3C27C539 		.word	969221948
 954 05bc 7A56313A 		.word	976311930
 955 05c0 42126E3A 		.word	980292162
 956 05c4 30668D3A 		.word	982345264
 957 05c8 3CD79C3A 		.word	983357244
 958 05cc D078A63A 		.word	983988432
 959 05d0 7465AB3A 		.word	984311156
 960 05d4 44ABAC3A 		.word	984394564
 961 05d8 E844AB3A 		.word	984302824
 962 05dc D711A83A 		.word	984093143
 963 05e0 03D3A33A 		.word	983814915
 964 05e4 1F259F3A 		.word	983508255
 965 05e8 9E7F9A3A 		.word	983203742
 966 05ec B534963A 		.word	982922421
ARM GAS  /var/folders/11/xdtqf_dx1yx09tgy7pcbkdzh0000gp/T//cca9poyW.s 			page 34


 967 05f0 B271923A 		.word	982675890
 968 05f4 C00B36BA 		.word	-1170863168
 969 05f8 217327BA 		.word	-1171819743
 970 05fc 103E14BA 		.word	-1173078512
 971 0600 1C72F9B9 		.word	-1174834660
 972 0604 D58AC2B9 		.word	-1178432811
 973 0608 761085B9 		.word	-1182461834
 974 060c 874A06B9 		.word	-1190770041
 975 0610 00000000 		.word	0
 976 0614 C21A0039 		.word	956308162
 977 0618 8D6E6F39 		.word	963604109
 978 061c D223A139 		.word	966861778
 979 0620 3181B639 		.word	968261937
 980 0624 5AD8B239 		.word	968022106
 981 0628 EAF79239 		.word	965933034
 982 062c 01B62C39 		.word	959231489
 983 0630 00000080 		.word	-2147483648
 984 0634 92FF51B9 		.word	-1185808494
 985 0638 022DD9B9 		.word	-1176949502
 986 063c A77220BA 		.word	-1172278617
 987 0640 848146BA 		.word	-1169784444
 988 0644 590A54BA 		.word	-1168897447
 989 0648 34053EBA 		.word	-1170340556
 990 064c 6849F4B9 		.word	-1175172760
 991 0650 00000000 		.word	0
 992 0654 DDB7353A 		.word	976599005
 993 0658 AF0AD43A 		.word	986974895
 994 065c 3CC0343B 		.word	993312828
 995 0660 7A91853B 		.word	998609274
 996 0664 3697B43B 		.word	1001690934
 997 0668 8EB6E43B 		.word	1004844686
 998 066c F448093C 		.word	1007241460
 999 0670 DB281D3C 		.word	1008543963
 1000 0674 25EE2B3C 		.word	1009511973
 1001 0678 C18D333C 		.word	1010011585
 1002 067c 2125323C 		.word	1009919265
 1003 0680 0A23263C 		.word	1009132298
 1004 0684 4F6F0E3C 		.word	1007578959
 1005 0688 521CD53B 		.word	1003822162
 1006 068c A4F06A3B 		.word	996864164
 1007 0690 00000080 		.word	-2147483648
 1008 0694 DC9F87BB 		.word	-1148739620
 1009 0698 23160EBC 		.word	-1139927517
 1010 069c 01855BBC 		.word	-1134852863
 1011 06a0 CB2194BC 		.word	-1131142709
 1012 06a4 960FB8BC 		.word	-1128788074
 1013 06a8 2E63D7BC 		.word	-1126735058
 1014 06ac 8705F0BC 		.word	-1125120633
 1015 06b0 A80900BD 		.word	-1124071000
 1016 06b4 03FF02BD 		.word	-1123877117
 1017 06b8 D45400BD 		.word	-1124051756
 1018 06bc 1E85EFBC 		.word	-1125153506
 1019 06c0 D89AD2BC 		.word	-1127048488
 1020 06c4 1199AABC 		.word	-1129670383
 1021 06c8 A09F71BC 		.word	-1133404256
 1022 06cc FC94FCBB 		.word	-1141074692
 1023 06d0 00000000 		.word	0
ARM GAS  /var/folders/11/xdtqf_dx1yx09tgy7pcbkdzh0000gp/T//cca9poyW.s 			page 35


 1024 06d4 9FAD033C 		.word	1006874015
 1025 06d8 CB58833C 		.word	1015240907
 1026 06dc F16BC13C 		.word	1019309041
 1027 06e0 E50EF93C 		.word	1022955237
 1028 06e4 32C2133D 		.word	1024705074
 1029 06e8 B73D253D 		.word	1025850807
 1030 06ec EF18303D 		.word	1026562287
 1031 06f0 45C7333D 		.word	1026803525
 1032 06f4 EF18303D 		.word	1026562287
 1033 06f8 B73D253D 		.word	1025850807
 1034 06fc 32C2133D 		.word	1024705074
 1035 0700 E50EF93C 		.word	1022955237
 1036 0704 F16BC13C 		.word	1019309041
 1037 0708 CB58833C 		.word	1015240907
 1038 070c 9FAD033C 		.word	1006874015
 1039 0710 00000000 		.word	0
 1040 0714 FC94FCBB 		.word	-1141074692
 1041 0718 A09F71BC 		.word	-1133404256
 1042 071c 1199AABC 		.word	-1129670383
 1043 0720 D89AD2BC 		.word	-1127048488
 1044 0724 1E85EFBC 		.word	-1125153506
 1045 0728 D45400BD 		.word	-1124051756
 1046 072c 03FF02BD 		.word	-1123877117
 1047 0730 A80900BD 		.word	-1124071000
 1048 0734 8705F0BC 		.word	-1125120633
 1049 0738 2E63D7BC 		.word	-1126735058
 1050 073c 960FB8BC 		.word	-1128788074
 1051 0740 CB2194BC 		.word	-1131142709
 1052 0744 01855BBC 		.word	-1134852863
 1053 0748 23160EBC 		.word	-1139927517
 1054 074c DC9F87BB 		.word	-1148739620
 1055 0750 00000080 		.word	-2147483648
 1056 0754 A4F06A3B 		.word	996864164
 1057 0758 521CD53B 		.word	1003822162
 1058 075c 4F6F0E3C 		.word	1007578959
 1059 0760 0A23263C 		.word	1009132298
 1060 0764 2125323C 		.word	1009919265
 1061 0768 C18D333C 		.word	1010011585
 1062 076c 25EE2B3C 		.word	1009511973
 1063 0770 DB281D3C 		.word	1008543963
 1064 0774 F448093C 		.word	1007241460
 1065 0778 8EB6E43B 		.word	1004844686
 1066 077c 3697B43B 		.word	1001690934
 1067 0780 7A91853B 		.word	998609274
 1068 0784 3CC0343B 		.word	993312828
 1069 0788 AF0AD43A 		.word	986974895
 1070 078c DDB7353A 		.word	976599005
 1071 0790 00000000 		.word	0
 1072 0794 6849F4B9 		.word	-1175172760
 1073 0798 34053EBA 		.word	-1170340556
 1074 079c 590A54BA 		.word	-1168897447
 1075 07a0 848146BA 		.word	-1169784444
 1076 07a4 A77220BA 		.word	-1172278617
 1077 07a8 022DD9B9 		.word	-1176949502
 1078 07ac 92FF51B9 		.word	-1185808494
 1079 07b0 00000080 		.word	-2147483648
 1080 07b4 01B62C39 		.word	959231489
ARM GAS  /var/folders/11/xdtqf_dx1yx09tgy7pcbkdzh0000gp/T//cca9poyW.s 			page 36


 1081 07b8 EAF79239 		.word	965933034
 1082 07bc 5AD8B239 		.word	968022106
 1083 07c0 3181B639 		.word	968261937
 1084 07c4 D223A139 		.word	966861778
 1085 07c8 8D6E6F39 		.word	963604109
 1086 07cc C21A0039 		.word	956308162
 1087 07d0 00000000 		.word	0
 1088 07d4 874A06B9 		.word	-1190770041
 1089 07d8 761085B9 		.word	-1182461834
 1090 07dc D58AC2B9 		.word	-1178432811
 1091 07e0 1C72F9B9 		.word	-1174834660
 1092 07e4 103E14BA 		.word	-1173078512
 1093 07e8 217327BA 		.word	-1171819743
 1094 07ec C00B36BA 		.word	-1170863168
 1095 07f0 60A3343A 		.word	976528224
 1096 07f4 88ED133A 		.word	974384520
 1097 07f8 C497AA39 		.word	967481284
 1098 07fc 00000080 		.word	-2147483648
 1099 0800 3B06BFB9 		.word	-1178663365
 1100 0804 9BEC38BA 		.word	-1170674533
 1101 0808 7CA77ABA 		.word	-1166366852
 1102 080c 8AD78ABA 		.word	-1165305974
 1103 0810 85F380BA 		.word	-1165954171
 1104 0814 7EBF41BA 		.word	-1170096258
 1105 0818 2948C7B9 		.word	-1178122199
 1106 081c 00000000 		.word	0
 1107 0820 35129939 		.word	966332981
 1108 0824 5A73D339 		.word	970158938
 1109 0828 9DE79939 		.word	966387613
 1110 082c 00000080 		.word	-2147483648
 1111 0830 FE20BBB9 		.word	-1178918658
 1112 0834 8A3B1CBA 		.word	-1172554870
 1113 0838 FA5209BA 		.word	-1173794054
 1114 083c 00000000 		.word	0
 1115 0840 811D833A 		.word	981671297
 1116 0844 0AC3193B 		.word	991544074
 1117 0848 A3E7753B 		.word	997582755
 1118 084c BC399E3B 		.word	1000225212
 1119 0850 FA94A93B 		.word	1000969466
 1120 0854 3557933B 		.word	999511861
 1121 0858 637B313B 		.word	993098595
 1122 085c 00000080 		.word	-2147483648
 1123 0860 0ED14FBB 		.word	-1152397042
 1124 0864 690CCABB 		.word	-1144386455
 1125 0868 2A3908BC 		.word	-1140311766
 1126 086c 93FD14BC 		.word	-1139475053
 1127 0870 99D007BC 		.word	-1140338535
 1128 0874 116DC7BB 		.word	-1144558319
 1129 0878 D6E147BB 		.word	-1152917034
 1130 087c 00000000 		.word	0
 1131 0880 092A113B 		.word	990980617
 1132 0884 1DE8423B 		.word	994240541
 1133 0888 3CF8093B 		.word	990509116
 1134 088c 00000080 		.word	-2147483648
 1135 0890 B44A1FBB 		.word	-1155577164
 1136 0894 0AF381BB 		.word	-1149111542
 1137 0898 0FBA5FBB 		.word	-1151354353
ARM GAS  /var/folders/11/xdtqf_dx1yx09tgy7pcbkdzh0000gp/T//cca9poyW.s 			page 37


 1138 089c 00000000 		.word	0
 1139 08a0 1E85CE3B 		.word	1003390238
 1140 08a4 BF396F3C 		.word	1013922239
 1141 08a8 659ABD3C 		.word	1019058789
 1142 08ac CDC3F23C 		.word	1022542797
 1143 08b0 A8FB013D 		.word	1023540136
 1144 08b4 5ABDE23C 		.word	1021492570
 1145 08b8 99D0893C 		.word	1015664793
 1146 08bc 00000080 		.word	-2147483648
 1147 08c0 3C83A7BC 		.word	-1129872580
 1148 08c4 42E527BD 		.word	-1121458878
 1149 08c8 E3B66BBD 		.word	-1117014301
 1150 08cc 39DB87BD 		.word	-1115169991
 1151 08d0 048D84BD 		.word	-1115386620
 1152 08d4 6D9154BD 		.word	-1118531219
 1153 08d8 AC34EFBC 		.word	-1125174100
 1154 08dc 00000000 		.word	0
 1155 08e0 B2EDFC3C 		.word	1023208882
 1156 08e4 B3BD6D3D 		.word	1030602163
 1157 08e8 CDEB9C3D 		.word	1033694157
 1158 08ec 046FAA3D 		.word	1034579716
 1159 08f0 CDEB9C3D 		.word	1033694157
 1160 08f4 B3BD6D3D 		.word	1030602163
 1161 08f8 B2EDFC3C 		.word	1023208882
 1162 08fc 00000000 		.word	0
 1163 0900 AC34EFBC 		.word	-1125174100
 1164 0904 6D9154BD 		.word	-1118531219
 1165 0908 048D84BD 		.word	-1115386620
 1166 090c 39DB87BD 		.word	-1115169991
 1167 0910 E3B66BBD 		.word	-1117014301
 1168 0914 42E527BD 		.word	-1121458878
 1169 0918 3C83A7BC 		.word	-1129872580
 1170 091c 00000080 		.word	-2147483648
 1171 0920 99D0893C 		.word	1015664793
 1172 0924 5ABDE23C 		.word	1021492570
 1173 0928 A8FB013D 		.word	1023540136
 1174 092c CDC3F23C 		.word	1022542797
 1175 0930 659ABD3C 		.word	1019058789
 1176 0934 BF396F3C 		.word	1013922239
 1177 0938 1E85CE3B 		.word	1003390238
 1178 093c 00000000 		.word	0
 1179 0940 0FBA5FBB 		.word	-1151354353
 1180 0944 0AF381BB 		.word	-1149111542
 1181 0948 B44A1FBB 		.word	-1155577164
 1182 094c 00000080 		.word	-2147483648
 1183 0950 3CF8093B 		.word	990509116
 1184 0954 1DE8423B 		.word	994240541
 1185 0958 092A113B 		.word	990980617
 1186 095c 00000000 		.word	0
 1187 0960 D6E147BB 		.word	-1152917034
 1188 0964 116DC7BB 		.word	-1144558319
 1189 0968 99D007BC 		.word	-1140338535
 1190 096c 93FD14BC 		.word	-1139475053
 1191 0970 2A3908BC 		.word	-1140311766
 1192 0974 690CCABB 		.word	-1144386455
 1193 0978 0ED14FBB 		.word	-1152397042
 1194 097c 00000080 		.word	-2147483648
ARM GAS  /var/folders/11/xdtqf_dx1yx09tgy7pcbkdzh0000gp/T//cca9poyW.s 			page 38


 1195 0980 637B313B 		.word	993098595
 1196 0984 3557933B 		.word	999511861
 1197 0988 FA94A93B 		.word	1000969466
 1198 098c BC399E3B 		.word	1000225212
 1199 0990 A3E7753B 		.word	997582755
 1200 0994 0AC3193B 		.word	991544074
 1201 0998 811D833A 		.word	981671297
 1202 099c 00000000 		.word	0
 1203 09a0 FA5209BA 		.word	-1173794054
 1204 09a4 8A3B1CBA 		.word	-1172554870
 1205 09a8 FE20BBB9 		.word	-1178918658
 1206 09ac 00000080 		.word	-2147483648
 1207 09b0 9DE79939 		.word	966387613
 1208 09b4 5A73D339 		.word	970158938
 1209 09b8 35129939 		.word	966332981
 1210 09bc 00000000 		.word	0
 1211 09c0 2948C7B9 		.word	-1178122199
 1212 09c4 7EBF41BA 		.word	-1170096258
 1213 09c8 85F380BA 		.word	-1165954171
 1214 09cc 8AD78ABA 		.word	-1165305974
 1215 09d0 7CA77ABA 		.word	-1166366852
 1216 09d4 9BEC38BA 		.word	-1170674533
 1217 09d8 3B06BFB9 		.word	-1178663365
 1218 09dc 00000080 		.word	-2147483648
 1219 09e0 C497AA39 		.word	967481284
 1220 09e4 88ED133A 		.word	974384520
 1221 09e8 60A3343A 		.word	976528224
 1222 09ec 838BD3B9 		.word	-1177318525
 1223 09f0 00000000 		.word	0
 1224 09f4 D7822439 		.word	958694103
 1225 09f8 00000080 		.word	-2147483648
 1226 09fc BE3638B9 		.word	-1187498306
 1227 0a00 00000000 		.word	0
 1228 0a04 95C5123A 		.word	974308757
 1229 0a08 C8C98A3A 		.word	982174152
 1230 0a0c E83B703A 		.word	980433896
 1231 0a10 00000080 		.word	-2147483648
 1232 0a14 F60192BA 		.word	-1164836362
 1233 0a18 7699CCBA 		.word	-1160996490
 1234 0a1c A59A82BA 		.word	-1165845851
 1235 0a20 00000000 		.word	0
 1236 0a24 2E7BE939 		.word	971602734
 1237 0a28 00000080 		.word	-2147483648
 1238 0a2c C4F00DBA 		.word	-1173491516
 1239 0a30 00000000 		.word	0
 1240 0a34 F555EA3A 		.word	988435957
 1241 0a38 648A5E3B 		.word	996051556
 1242 0a3c 6E21403B 		.word	994058606
 1243 0a40 00000080 		.word	-2147483648
 1244 0a44 8D0E65BB 		.word	-1151005043
 1245 0a48 E2299EBB 		.word	-1147262494
 1246 0a4c 829946BB 		.word	-1153001086
 1247 0a50 00000000 		.word	0
 1248 0a54 6127AB3A 		.word	984295265
 1249 0a58 00000080 		.word	-2147483648
 1250 0a5c 0E68C8BA 		.word	-1161271282
 1251 0a60 00000000 		.word	0
ARM GAS  /var/folders/11/xdtqf_dx1yx09tgy7pcbkdzh0000gp/T//cca9poyW.s 			page 39


 1252 0a64 71889F3B 		.word	1000310897
 1253 0a68 9AEE143C 		.word	1008004762
 1254 0a6c F904FD3B 		.word	1006437625
 1255 0a70 00000080 		.word	-2147483648
 1256 0a74 DF7212BC 		.word	-1139641633
 1257 0a78 12A047BC 		.word	-1136156654
 1258 0a7c DBB6F7BB 		.word	-1141393701
 1259 0a80 00000000 		.word	0
 1260 0a84 3C4E513B 		.word	995184188
 1261 0a88 00000080 		.word	-2147483648
 1262 0a8c 22A771BB 		.word	-1150179550
 1263 0a90 00000000 		.word	0
 1264 0a94 40E33E3C 		.word	1010754368
 1265 0a98 BFFDB13C 		.word	1018297791
 1266 0a9c E34F973C 		.word	1016549347
 1267 0aa0 00000080 		.word	-2147483648
 1268 0aa4 DB9CB0BC 		.word	-1129276197
 1269 0aa8 6EABF2BC 		.word	-1124947090
 1270 0aac 923998BC 		.word	-1130874478
 1271 0ab0 00000000 		.word	0
 1272 0ab4 AFE6043C 		.word	1006954159
 1273 0ab8 00000080 		.word	-2147483648
 1274 0abc 3E8A21BC 		.word	-1138652610
 1275 0ac0 00000000 		.word	0
 1276 0ac4 31060A3D 		.word	1024067121
 1277 0ac8 97CD873D 		.word	1032310167
 1278 0acc 47F0763D 		.word	1031204935
 1279 0ad0 00000080 		.word	-2147483648
 1280 0ad4 9B42AFBD 		.word	-1112587621
 1281 0ad8 729B0BBE 		.word	-1106535566
 1282 0adc A6CDD7BD 		.word	-1109930586
 1283 0ae0 00000000 		.word	0
 1284 0ae4 5B0EEE3D 		.word	1039011419
 1285 0ae8 E95D2A3E 		.word	1042963945
 1286 0aec 5B0EEE3D 		.word	1039011419
 1287 0af0 00000000 		.word	0
 1288 0af4 A6CDD7BD 		.word	-1109930586
 1289 0af8 729B0BBE 		.word	-1106535566
 1290 0afc 9B42AFBD 		.word	-1112587621
 1291 0b00 00000080 		.word	-2147483648
 1292 0b04 47F0763D 		.word	1031204935
 1293 0b08 97CD873D 		.word	1032310167
 1294 0b0c 31060A3D 		.word	1024067121
 1295 0b10 00000000 		.word	0
 1296 0b14 3E8A21BC 		.word	-1138652610
 1297 0b18 00000080 		.word	-2147483648
 1298 0b1c AFE6043C 		.word	1006954159
 1299 0b20 00000000 		.word	0
 1300 0b24 923998BC 		.word	-1130874478
 1301 0b28 6EABF2BC 		.word	-1124947090
 1302 0b2c DB9CB0BC 		.word	-1129276197
 1303 0b30 00000080 		.word	-2147483648
 1304 0b34 E34F973C 		.word	1016549347
 1305 0b38 BFFDB13C 		.word	1018297791
 1306 0b3c 40E33E3C 		.word	1010754368
 1307 0b40 00000000 		.word	0
 1308 0b44 22A771BB 		.word	-1150179550
ARM GAS  /var/folders/11/xdtqf_dx1yx09tgy7pcbkdzh0000gp/T//cca9poyW.s 			page 40


 1309 0b48 00000080 		.word	-2147483648
 1310 0b4c 3C4E513B 		.word	995184188
 1311 0b50 00000000 		.word	0
 1312 0b54 DBB6F7BB 		.word	-1141393701
 1313 0b58 12A047BC 		.word	-1136156654
 1314 0b5c DF7212BC 		.word	-1139641633
 1315 0b60 00000080 		.word	-2147483648
 1316 0b64 F904FD3B 		.word	1006437625
 1317 0b68 9AEE143C 		.word	1008004762
 1318 0b6c 71889F3B 		.word	1000310897
 1319 0b70 00000000 		.word	0
 1320 0b74 0E68C8BA 		.word	-1161271282
 1321 0b78 00000080 		.word	-2147483648
 1322 0b7c 6127AB3A 		.word	984295265
 1323 0b80 00000000 		.word	0
 1324 0b84 829946BB 		.word	-1153001086
 1325 0b88 E2299EBB 		.word	-1147262494
 1326 0b8c 8D0E65BB 		.word	-1151005043
 1327 0b90 00000080 		.word	-2147483648
 1328 0b94 6E21403B 		.word	994058606
 1329 0b98 648A5E3B 		.word	996051556
 1330 0b9c F555EA3A 		.word	988435957
 1331 0ba0 00000000 		.word	0
 1332 0ba4 C4F00DBA 		.word	-1173491516
 1333 0ba8 00000080 		.word	-2147483648
 1334 0bac 2E7BE939 		.word	971602734
 1335 0bb0 00000000 		.word	0
 1336 0bb4 A59A82BA 		.word	-1165845851
 1337 0bb8 7699CCBA 		.word	-1160996490
 1338 0bbc F60192BA 		.word	-1164836362
 1339 0bc0 00000080 		.word	-2147483648
 1340 0bc4 E83B703A 		.word	980433896
 1341 0bc8 C8C98A3A 		.word	982174152
 1342 0bcc 95C5123A 		.word	974308757
 1343 0bd0 00000000 		.word	0
 1344 0bd4 BE3638B9 		.word	-1187498306
 1345 0bd8 00000080 		.word	-2147483648
 1346 0bdc D7822439 		.word	958694103
 1347 0be0 00000000 		.word	0
 1348 0be4 838BD3B9 		.word	-1177318525
 1349              		.global	band_outputs
 1350              		.section	.bss.band_outputs,"aw",%nobits
 1351              		.align	2
 1354              	band_outputs:
 1355 0000 00000000 		.space	6144
 1355      00000000 
 1355      00000000 
 1355      00000000 
 1355      00000000 
 1356              		.global	fir_states
 1357              		.section	.bss.fir_states,"aw",%nobits
 1358              		.align	2
 1361              	fir_states:
 1362 0000 00000000 		.space	9168
 1362      00000000 
 1362      00000000 
 1362      00000000 
ARM GAS  /var/folders/11/xdtqf_dx1yx09tgy7pcbkdzh0000gp/T//cca9poyW.s 			page 41


 1362      00000000 
 1363              		.global	fir_filters
 1364              		.section	.bss.fir_filters,"aw",%nobits
 1365              		.align	2
 1368              	fir_filters:
 1369 0000 00000000 		.space	72
 1369      00000000 
 1369      00000000 
 1369      00000000 
 1369      00000000 
 1370              		.global	windowed_data
 1371              		.section	.bss.windowed_data,"aw",%nobits
 1372              		.align	2
 1375              	windowed_data:
 1376 0000 00000000 		.space	1024
 1376      00000000 
 1376      00000000 
 1376      00000000 
 1376      00000000 
 1377              		.global	window
 1378              		.section	.bss.window,"aw",%nobits
 1379              		.align	2
 1382              	window:
 1383 0000 00000000 		.space	1024
 1383      00000000 
 1383      00000000 
 1383      00000000 
 1383      00000000 
 1384              		.global	hw
 1385              		.section	.bss.hw,"aw",%nobits
 1386              		.align	2
 1389              	hw:
 1390 0000 00000000 		.space	64
 1390      00000000 
 1390      00000000 
 1390      00000000 
 1390      00000000 
 1391              		.global	band_gains
 1392              		.section	.data.band_gains,"aw"
 1393              		.align	2
 1396              	band_gains:
 1397 0000 CDCC4C3F 		.word	1061997773
 1398 0004 6666663F 		.word	1063675494
 1399 0008 0000803F 		.word	1065353216
 1400 000c 0000803F 		.word	1065353216
 1401 0010 6666663F 		.word	1063675494
 1402 0014 CDCC4C3F 		.word	1061997773
 1403              		.text
 1404              	.Letext0:
 1405              		.file 10 "/Applications/ArmGNUToolchain/14.2.rel1/arm-none-eabi/arm-none-eabi/include/machine/_def
 1406              		.file 11 "/Applications/ArmGNUToolchain/14.2.rel1/arm-none-eabi/arm-none-eabi/include/sys/_stdint.
 1407              		.file 12 "/Applications/ArmGNUToolchain/14.2.rel1/arm-none-eabi/arm-none-eabi/include/stdint.h"
 1408              		.file 13 "/Applications/ArmGNUToolchain/14.2.rel1/arm-none-eabi/lib/gcc/arm-none-eabi/14.2.1/inclu
 1409              		.file 14 "/Applications/ArmGNUToolchain/14.2.rel1/arm-none-eabi/arm-none-eabi/include/c++/14.2.1/c
 1410              		.file 15 "/Applications/ArmGNUToolchain/14.2.rel1/arm-none-eabi/arm-none-eabi/include/c++/14.2.1/b
 1411              		.file 16 "/Applications/ArmGNUToolchain/14.2.rel1/arm-none-eabi/arm-none-eabi/include/c++/14.2.1/c
 1412              		.file 17 "/Applications/ArmGNUToolchain/14.2.rel1/arm-none-eabi/arm-none-eabi/include/c++/14.2.1/c
ARM GAS  /var/folders/11/xdtqf_dx1yx09tgy7pcbkdzh0000gp/T//cca9poyW.s 			page 42


 1413              		.file 18 "/Applications/ArmGNUToolchain/14.2.rel1/arm-none-eabi/arm-none-eabi/include/c++/14.2.1/t
 1414              		.file 19 "/Applications/ArmGNUToolchain/14.2.rel1/arm-none-eabi/arm-none-eabi/include/c++/14.2.1/d
 1415              		.file 20 "/Applications/ArmGNUToolchain/14.2.rel1/arm-none-eabi/arm-none-eabi/include/c++/14.2.1/c
 1416              		.file 21 "/Applications/ArmGNUToolchain/14.2.rel1/arm-none-eabi/arm-none-eabi/include/c++/14.2.1/c
 1417              		.file 22 "/Applications/ArmGNUToolchain/14.2.rel1/arm-none-eabi/arm-none-eabi/include/c++/14.2.1/c
 1418              		.file 23 "/Applications/ArmGNUToolchain/14.2.rel1/arm-none-eabi/arm-none-eabi/include/c++/14.2.1/c
 1419              		.file 24 "/Applications/ArmGNUToolchain/14.2.rel1/arm-none-eabi/arm-none-eabi/include/c++/14.2.1/c
 1420              		.file 25 "/Applications/ArmGNUToolchain/14.2.rel1/arm-none-eabi/arm-none-eabi/include/c++/14.2.1/b
 1421              		.file 26 "/Applications/ArmGNUToolchain/14.2.rel1/arm-none-eabi/arm-none-eabi/include/c++/14.2.1/b
 1422              		.file 27 "/Applications/ArmGNUToolchain/14.2.rel1/arm-none-eabi/arm-none-eabi/include/c++/14.2.1/b
 1423              		.file 28 "/Applications/ArmGNUToolchain/14.2.rel1/arm-none-eabi/arm-none-eabi/include/sys/_types.h
 1424              		.file 29 "/Applications/ArmGNUToolchain/14.2.rel1/arm-none-eabi/arm-none-eabi/include/sys/reent.h"
 1425              		.file 30 "/Applications/ArmGNUToolchain/14.2.rel1/arm-none-eabi/arm-none-eabi/include/sys/lock.h"
 1426              		.file 31 "/Applications/ArmGNUToolchain/14.2.rel1/arm-none-eabi/arm-none-eabi/include/math.h"
 1427              		.file 32 "/Applications/ArmGNUToolchain/14.2.rel1/arm-none-eabi/arm-none-eabi/include/stdlib.h"
 1428              		.file 33 "/Applications/ArmGNUToolchain/14.2.rel1/arm-none-eabi/arm-none-eabi/include/c++/14.2.1/m
 1429              		.file 34 "/Applications/ArmGNUToolchain/14.2.rel1/arm-none-eabi/arm-none-eabi/include/c++/14.2.1/s
 1430              		.file 35 "../../libDaisy/src/daisy_core.h"
 1431              		.file 36 "/Applications/ArmGNUToolchain/14.2.rel1/arm-none-eabi/arm-none-eabi/include/c++/14.2.1/a
 1432              		.file 37 "../../libDaisy/src/util/wav_format.h"
 1433              		.file 38 "../../libDaisy/src/dev/max11300.h"
 1434              		.file 39 "../../libDaisy/src/per/gpio.h"
 1435              		.file 40 "../../libDaisy/src/dev/sdram.h"
 1436              		.file 41 "/Applications/ArmGNUToolchain/14.2.rel1/arm-none-eabi/lib/gcc/arm-none-eabi/14.2.1/inclu
 1437              		.file 42 "/Applications/ArmGNUToolchain/14.2.rel1/arm-none-eabi/arm-none-eabi/include/stdio.h"
 1438              		.file 43 "/Applications/ArmGNUToolchain/14.2.rel1/arm-none-eabi/arm-none-eabi/include/string.h"
 1439              		.file 44 "../../DaisySP/Source/Control/adenv.h"
 1440              		.file 45 "../../DaisySP/Source/Utility/dsp.h"
 1441              		.file 46 "/Applications/ArmGNUToolchain/14.2.rel1/arm-none-eabi/arm-none-eabi/include/wchar.h"
 1442              		.file 47 "/Applications/ArmGNUToolchain/14.2.rel1/arm-none-eabi/arm-none-eabi/include/locale.h"
 1443              		.file 48 "../../libDaisy/Drivers/CMSIS/DSP/Include/arm_math.h"
 1444              		.file 49 "<built-in>"
 1445              		.file 50 "../../libDaisy/src/dev/sr_595.h"
ARM GAS  /var/folders/11/xdtqf_dx1yx09tgy7pcbkdzh0000gp/T//cca9poyW.s 			page 43


DEFINED SYMBOLS
                            *ABS*:00000000 hearing_aid.cpp
/var/folders/11/xdtqf_dx1yx09tgy7pcbkdzh0000gp/T//cca9poyW.s:20     .text._ZN5daisy9DaisySeedD2Ev:00000000 $t
/var/folders/11/xdtqf_dx1yx09tgy7pcbkdzh0000gp/T//cca9poyW.s:27     .text._ZN5daisy9DaisySeedD2Ev:00000000 _ZN5daisy9DaisySeedD2Ev
/var/folders/11/xdtqf_dx1yx09tgy7pcbkdzh0000gp/T//cca9poyW.s:27     .text._ZN5daisy9DaisySeedD2Ev:00000000 _ZN5daisy9DaisySeedD1Ev
/var/folders/11/xdtqf_dx1yx09tgy7pcbkdzh0000gp/T//cca9poyW.s:70     .text._Z13AudioCallbackPKPKfPPfj:00000000 $t
/var/folders/11/xdtqf_dx1yx09tgy7pcbkdzh0000gp/T//cca9poyW.s:77     .text._Z13AudioCallbackPKPKfPPfj:00000000 _Z13AudioCallbackPKPKfPPfj
/var/folders/11/xdtqf_dx1yx09tgy7pcbkdzh0000gp/T//cca9poyW.s:192    .text._Z13AudioCallbackPKPKfPPfj:0000006c $d
/var/folders/11/xdtqf_dx1yx09tgy7pcbkdzh0000gp/T//cca9poyW.s:1375   .bss.windowed_data:00000000 windowed_data
/var/folders/11/xdtqf_dx1yx09tgy7pcbkdzh0000gp/T//cca9poyW.s:1382   .bss.window:00000000 window
/var/folders/11/xdtqf_dx1yx09tgy7pcbkdzh0000gp/T//cca9poyW.s:199    .text._Z16InitCMSISFiltersv:00000000 $t
/var/folders/11/xdtqf_dx1yx09tgy7pcbkdzh0000gp/T//cca9poyW.s:206    .text._Z16InitCMSISFiltersv:00000000 _Z16InitCMSISFiltersv
/var/folders/11/xdtqf_dx1yx09tgy7pcbkdzh0000gp/T//cca9poyW.s:265    .text._Z16InitCMSISFiltersv:00000038 $d
/var/folders/11/xdtqf_dx1yx09tgy7pcbkdzh0000gp/T//cca9poyW.s:1368   .bss.fir_filters:00000000 fir_filters
/var/folders/11/xdtqf_dx1yx09tgy7pcbkdzh0000gp/T//cca9poyW.s:586    .data.fir_coeffs:00000000 fir_coeffs
/var/folders/11/xdtqf_dx1yx09tgy7pcbkdzh0000gp/T//cca9poyW.s:1361   .bss.fir_states:00000000 fir_states
/var/folders/11/xdtqf_dx1yx09tgy7pcbkdzh0000gp/T//cca9poyW.s:272    .text._Z21create_hamming_windowPfi:00000000 $t
/var/folders/11/xdtqf_dx1yx09tgy7pcbkdzh0000gp/T//cca9poyW.s:279    .text._Z21create_hamming_windowPfi:00000000 _Z21create_hamming_windowPfi
/var/folders/11/xdtqf_dx1yx09tgy7pcbkdzh0000gp/T//cca9poyW.s:363    .text._Z21create_hamming_windowPfi:00000050 $d
/var/folders/11/xdtqf_dx1yx09tgy7pcbkdzh0000gp/T//cca9poyW.s:371    .text.startup.main:00000000 $t
/var/folders/11/xdtqf_dx1yx09tgy7pcbkdzh0000gp/T//cca9poyW.s:378    .text.startup.main:00000000 main
/var/folders/11/xdtqf_dx1yx09tgy7pcbkdzh0000gp/T//cca9poyW.s:429    .text.startup.main:00000030 $d
/var/folders/11/xdtqf_dx1yx09tgy7pcbkdzh0000gp/T//cca9poyW.s:1389   .bss.hw:00000000 hw
/var/folders/11/xdtqf_dx1yx09tgy7pcbkdzh0000gp/T//cca9poyW.s:436    .text.startup._GLOBAL__sub_I_band_gains:00000000 $t
/var/folders/11/xdtqf_dx1yx09tgy7pcbkdzh0000gp/T//cca9poyW.s:442    .text.startup._GLOBAL__sub_I_band_gains:00000000 _GLOBAL__sub_I_band_gains
/var/folders/11/xdtqf_dx1yx09tgy7pcbkdzh0000gp/T//cca9poyW.s:570    .text.startup._GLOBAL__sub_I_band_gains:0000001c $d
/var/folders/11/xdtqf_dx1yx09tgy7pcbkdzh0000gp/T//cca9poyW.s:579    .init_array:00000000 $d
/var/folders/11/xdtqf_dx1yx09tgy7pcbkdzh0000gp/T//cca9poyW.s:583    .data.fir_coeffs:00000000 $d
/var/folders/11/xdtqf_dx1yx09tgy7pcbkdzh0000gp/T//cca9poyW.s:1354   .bss.band_outputs:00000000 band_outputs
/var/folders/11/xdtqf_dx1yx09tgy7pcbkdzh0000gp/T//cca9poyW.s:1351   .bss.band_outputs:00000000 $d
/var/folders/11/xdtqf_dx1yx09tgy7pcbkdzh0000gp/T//cca9poyW.s:1358   .bss.fir_states:00000000 $d
/var/folders/11/xdtqf_dx1yx09tgy7pcbkdzh0000gp/T//cca9poyW.s:1365   .bss.fir_filters:00000000 $d
/var/folders/11/xdtqf_dx1yx09tgy7pcbkdzh0000gp/T//cca9poyW.s:1372   .bss.windowed_data:00000000 $d
/var/folders/11/xdtqf_dx1yx09tgy7pcbkdzh0000gp/T//cca9poyW.s:1379   .bss.window:00000000 $d
/var/folders/11/xdtqf_dx1yx09tgy7pcbkdzh0000gp/T//cca9poyW.s:1386   .bss.hw:00000000 $d
/var/folders/11/xdtqf_dx1yx09tgy7pcbkdzh0000gp/T//cca9poyW.s:1396   .data.band_gains:00000000 band_gains
/var/folders/11/xdtqf_dx1yx09tgy7pcbkdzh0000gp/T//cca9poyW.s:1393   .data.band_gains:00000000 $d
                           .group:00000000 _ZN5daisy9DaisySeedD5Ev

UNDEFINED SYMBOLS
arm_fir_init_f32
cosf
_ZN5daisy9DaisySeed4InitEb
_ZN5daisy9DaisySeed17SetAudioBlockSizeEj
_ZN5daisy9DaisySeed18SetAudioSampleRateENS_9SaiHandle6Config10SampleRateE
_ZN5daisy9DaisySeed10StartAudioEPFvPKPKfPPfjE
__aeabi_atexit
__dso_handle
